Archive member included because of file (symbol)

../../../libIPLAY/lib//libbios.a(exception.o)
                              ../object/ui_timer.o (IntEnable)
../../../libIPLAY/lib//libbios.a(agent.o)
                              ../../../libIPLAY/lib//libbios.a(exception.o) (BreakHandler)
../../../libIPLAY/lib//libbios.a(hal_Ckg.o)
                              ../object/main.o (Clock_PllFreqGet)
../../../libIPLAY/lib//libbios.a(string.o)
                              ../../../libIPLAY/lib//libbios.a(agent.o) (mp_vsprintf)
../../../libIPLAY/lib//libos.a(cosmos.o)
                              ../object/main.o (OsInit)
../../../libIPLAY/lib//libos.a(task.o)
                              ../../../libIPLAY/lib//libbios.a(exception.o) (boolContext)
../../../libIPLAY/lib//libos.a(object.o)
                              ../../../libIPLAY/lib//libos.a(cosmos.o) (ObjectInit)
../../../libIPLAY/lib//libos.a(event.o)
                              ../object/main.o (EventCreate)
../../../libIPLAY/lib//libos.a(mailbox.o)
                              ../../../libIPLAY/lib//libos.a(cosmos.o) (MailboxInit)
../../../libIPLAY/lib//libos.a(message.o)
                              ../../../libIPLAY/lib//libos.a(cosmos.o) (MessageCreate)
../../../libIPLAY/lib//libos.a(memory.o)
                              ../../../libIPLAY/lib//libos.a(task.o) (ker_mem_malloc)
../../../libIPLAY/lib//libos.a(systimer.o)
                              ../object/ui_timer.o (GetSysTime)
../../../libIPLAY/lib//libos.a(interrupt.o)
                              ../object/main.o (DmaIntHandleRegister)
../../../libIPLAY/lib//libMcard.a(mcard.o)
                              ../object/main.o (McardIsr)
../../../libIPLAY/lib//libMcard.a(NandFTL.o)
                              ../../../libIPLAY/lib//libMcard.a(mcard.o) (NandInit)
../../../libIPLAY/lib//libMcard.a(NandPhyAdv_Mp650.o)
                              ../../../libIPLAY/lib//libMcard.a(NandFTL.o) (GetNandLogAddr)
../../../libIPLAY/lib//libMcard.a(SD.o)
                              ../../../libIPLAY/lib//libMcard.a(NandFTL.o) (SdProgChk)
../../../libIPLAY/lib//libMcard.a(SdPhy_Mp650.o)
                              ../../../libIPLAY/lib//libMcard.a(SD.o) (SdHost_WaitCardResponse)
../../../libIPLAY/lib//libMcard.a(Uti.o)
                              ../../../libIPLAY/lib//libMcard.a(NandPhyAdv_Mp650.o) (MemDump)
../../../libIPLAY/lib//libMcard.a(NandIdIdentify.o)
                              ../../../libIPLAY/lib//libMcard.a(NandPhyAdv_Mp650.o) (NandIdPaserFunInit)
../../../libIPLAY/lib//libfile.a(dir.o)
                              ../object/UI_FileSystem.o (PathAPI__Cd_Path_UTF16)
../../../libIPLAY/lib//libfile.a(chain.o)
                              ../../../libIPLAY/lib//libfile.a(dir.o) (SectorClear)
../../../libIPLAY/lib//libfile.a(drive.o)
                              ../object/main.o (FileSystemInit)
../../../libIPLAY/lib//libfile.a(file.o)
                              ../../../libIPLAY/lib//libfile.a(dir.o) (ReplaceGlyph)
../../../libIPLAY/lib//libfile.a(Format.o)
                              ../object/main.o (Fat32_Format)
../../../libIPLAY/lib//libfile.a(filebrowser.o)
                              ../object/main.o (g_pstBrowser)
../../../libIPLAY/lib//libperipheral.a(hal_gpio.o)
                              ../object/xpgProcSensorData.o (Gpio_ValueGet)
../../../libIPLAY/lib//libperipheral.a(hal_mmcp.o)
                              ../object/isp.o (mmcp_memcpy)
../../../libIPLAY/lib//libperipheral.a(hal_rtc.o)
                              ../../../libIPLAY/lib//libos.a(systimer.o) (RTC_AlarmSet)
../../../libIPLAY/lib//libsystem.a(SystemConfig.o)
                              ../object/xpgFunc.o (g_bXpgStatus)
../../../libIPLAY/lib//libsystem.a(SystemMemory.o)
                              ../../../libIPLAY/lib//libsystem.a(SystemConfig.o) (SystemMemoryMapInit)
../../../libIPLAY/lib//libsystem.a(SystemDrive.o)
                              ../../../libIPLAY/lib//libfile.a(drive.o) (SystemCardEventSet)
../../../libIPLAY/lib//libsystem.a(global612.o)
                              ../object/xpgFunc.o (g_bAniFlag)
../../../libIPLAY/lib//libsystem.a(ISP_Nand.o)
                              ../object/main.o (NandCodeCheck)
../../../libIPLAY/lib//libsystem.a(McardDevInfo.o)
                              ../object/main.o (McardDevInfoStore)
../../../libIPLAY/lib//libsystem.a(SetTabFunc.o)
                              ../object/Setup.o (Sys_SettingTableOpen)
../../lib//libui.a(uigpio.o)  ../object/main.o (Ui_GetKey)
../../lib//libui.a(uiTouchCtrller.o)
                              ../object/main.o (TouchCtrllerInit)
../../../libIPLAY/lib//libdisplay.a(idu.o)
                              ../object/xpgProcSensorData.o (Idu_ChgWin)
../../../libIPLAY/lib//libdisplay.a(osd.o)
                              ../object/main.o (Idu_OsdSetDefaultPalette)
../../../libIPLAY/lib//libdisplay.a(osd4.o)
                              ../../../libIPLAY/lib//libdisplay.a(osd.o) (dwDefaultPalette)
../../../libIPLAY/lib//libdisplay.a(fontdisp.o)
                              ../object/xpgDrawSprite.o (SetCurrIduFontID)
../../../libIPLAY/lib//libdisplay.a(imgWin.o)
                              ../object/main.o (RGB2YUV)
../../../libIPLAY/lib//libdisplay.a(imgString.o)
                              ../object/xpgDrawSprite.o (Idu_PrintStringWithSize)
../../../libIPLAY/lib//libdisplay.a(IduTable.o)
                              ../../../libIPLAY/lib//libdisplay.a(idu.o) (g_mstTCON)
../../../libIPLAY/lib//libdisplay.a(Font.o)
                              ../../../libIPLAY/lib//libdisplay.a(imgString.o) (Font_Draw)
../../../libIPLAY/lib//libdisplay.a(scaler_650.o)
                              ../object/main.o (ScalerIsr)
../../../libIPLAY/lib//libdisplay.a(hal_ipu.o)
                              ../../../libIPLAY/lib//libdisplay.a(scaler_650.o) (Ipu_Sketch)
../../../libIPLAY/lib//libsensor.a(sensor_manager.o)
                              ../object/xpgProcSensorData.o (pbSensorWinBuffer)
../../../libIPLAY/lib//libsensor.a(sensor_driver_NT99140.o)
                              ../../../libIPLAY/lib//libsensor.a(sensor_manager.o) (Drive_Sensor_NT99140)
../../../libIPLAY/lib//libsensor.a(sensor_NT99140.o)
                              ../object/xpgProcSensorData.o (g_bDisplayMode)
../../../libIPLAY/lib//libimage.a(jpeg_hal.o)
                              ../object/main.o (CduIsr)
../../../libIPLAY/lib//libimage.a(IMG_jpeg.o)
                              ../../../libIPLAY/lib//libimage.a(jpeg_hal.o) (Jpg_Decoder_Init)
../../../libIPLAY/lib//libmpapi.a(api_main.o)
                              ../object/camcorder_func.o (Api_VideoRecording)
../../../libIPLAY/lib//libmpapi.a(mpImageResizeApi.o)
                              ../object/imageplayer.o (ImageDraw_FitToOrigin)
../../../libIPLAY/lib//libmpapi.a(mpImageApi.o)
                              ../../../libIPLAY/lib//libdisplay.a(scaler_650.o) (mpGetIPUEffectValue)
../../../libIPLAY/lib//libmpapi.a(mpTrace.o)
                              ../object/xpgProcSensorData.o (mpDebugPrintN)
../../../libIPLAY/lib//libmpapi.a(mpUtil.o)
                              ../object/xpgFunc.o (TimerDelay)
../../../libIPLAY/lib//libmpapi.a(mpImageFileApi.o)
                              ../../../libIPLAY/lib//libimage.a(jpeg_hal.o) (g_wDecodedImageType)
../../../libIPLAY/lib//libmpapi.a(mpStreamApi.o)
                              ../../../libIPLAY/lib//libmpapi.a(mpImageFileApi.o) (mpxStreamOpen)
../../../libIPLAY/lib//libjpeg.a(jpeg_decoder.o)
                              ../../../libIPLAY/lib//libimage.a(IMG_jpeg.o) (Libjpeg_DecodeImage)
../../../libIPLAY/lib//libjpeg.a(jdapistd.o)
                              ../../../libIPLAY/lib//libjpeg.a(jpeg_decoder.o) (jpeg_start_decompress)
../../../libIPLAY/lib//libjpeg.a(jdapimin.o)
                              ../../../libIPLAY/lib//libjpeg.a(jpeg_decoder.o) (jpeg_CreateDecompress)
../../../libIPLAY/lib//libjpeg.a(jdatasrc.o)
                              ../../../libIPLAY/lib//libjpeg.a(jpeg_decoder.o) (jpeg_stream_src)
../../../libIPLAY/lib//libjpeg.a(jdmaster.o)
                              ../../../libIPLAY/lib//libjpeg.a(jpeg_decoder.o) (jpeg_calc_output_dimensions)
../../../libIPLAY/lib//libjpeg.a(jmemmgr.o)
                              ../../../libIPLAY/lib//libjpeg.a(jdapimin.o) (jinit_memory_mgr)
../../../libIPLAY/lib//libjpeg.a(jdmarker.o)
                              ../../../libIPLAY/lib//libjpeg.a(jdatasrc.o) (jpeg_resync_to_restart)
../../../libIPLAY/lib//libjpeg.a(jdinput.o)
                              ../../../libIPLAY/lib//libjpeg.a(jdapimin.o) (jinit_input_controller)
../../../libIPLAY/lib//libjpeg.a(jcomapi.o)
                              ../../../libIPLAY/lib//libjpeg.a(jdapimin.o) (jpeg_abort)
../../../libIPLAY/lib//libjpeg.a(jdphuff.o)
                              ../../../libIPLAY/lib//libjpeg.a(jdmaster.o) (jinit_phuff_decoder)
../../../libIPLAY/lib//libjpeg.a(jdcoefct.o)
                              ../../../libIPLAY/lib//libjpeg.a(jdmaster.o) (jinit_d_coef_controller)
../../../libIPLAY/lib//libjpeg.a(jdhuff.o)
                              ../../../libIPLAY/lib//libjpeg.a(jdphuff.o) (jpeg_make_d_derived_tbl)
../../../libIPLAY/lib//libjpeg.a(jutils.o)
                              ../../../libIPLAY/lib//libjpeg.a(jdmarker.o) (jpeg_natural_order)
../../../libIPLAY/lib//libjpeg.a(jdpostct.o)
                              ../../../libIPLAY/lib//libjpeg.a(jdmaster.o) (jinit_d_post_controller)
../../../libIPLAY/lib//libjpeg.a(jddctmgr.o)
                              ../../../libIPLAY/lib//libjpeg.a(jdmaster.o) (jinit_inverse_dct)
../../../libIPLAY/lib//libjpeg.a(jdmainct.o)
                              ../../../libIPLAY/lib//libjpeg.a(jdmaster.o) (jinit_d_main_controller)
../../../libIPLAY/lib//libjpeg.a(jdcolor.o)
                              ../../../libIPLAY/lib//libjpeg.a(jdmaster.o) (jinit_color_deconverter)
../../../libIPLAY/lib//libjpeg.a(jdsample.o)
                              ../../../libIPLAY/lib//libjpeg.a(jdmaster.o) (jinit_upsampler)
../../../libIPLAY/lib//libjpeg.a(jmemnobs.o)
                              ../../../libIPLAY/lib//libjpeg.a(jmemmgr.o) (jpeg_get_small)
../../../libIPLAY/lib//libjpeg.a(jidctred.o)
                              ../../../libIPLAY/lib//libjpeg.a(jddctmgr.o) (jpeg_idct_4x4)
../../../libIPLAY/lib//libjpeg.a(jidctfst.o)
                              ../../../libIPLAY/lib//libjpeg.a(jddctmgr.o) (jpeg_idct_ifast)
../../../libIPLAY/lib//libjpeg.a(jerror.o)
                              ../../../libIPLAY/lib//libjpeg.a(jpeg_decoder.o) (jpeg_std_error)
../../../libIPLAY/lib//libjpeg.a(asm_jdphuff.o)
                              ../../../libIPLAY/lib//libjpeg.a(jdphuff.o) (decode_mcu_DC_first)
../../../libIPLAY/lib//libjpeg.a(asm_jdcolor.o)
                              ../../../libIPLAY/lib//libjpeg.a(jdcolor.o) (__rgb_ycc422_convert)
../../../libIPLAY/lib//libavipacker.a(AVI_Stream.o)
                              ../object/main.o (aviStreamTaskCreate)
../../../libIPLAY/lib//libavipacker.a(AVI_packerAPI.o)
                              ../../../libIPLAY/lib//libavipacker.a(AVI_Stream.o) (index_close)
../../../libIPLAY/lib//libavipacker.a(AVI_Packer.o)
                              ../../../libIPLAY/lib//libavipacker.a(AVI_packerAPI.o) (wavformatex)
../../../libIPLAY/lib//libavipacker.a(AVI_Utility.o)
                              ../../../libIPLAY/lib//libavipacker.a(AVI_packerAPI.o) (dwEndianConvert)
../../../libIPLAY/lib//libutil.a(util_CharString.o)
                              ../../../libIPLAY/lib//libfile.a(dir.o) (UpperCase08)
../../../libIPLAY/lib//libutil.a(util_Utf8ToUni.o)
                              ../../../libIPLAY/lib//libfile.a(dir.o) (mpx_UtilUtf8ToUnicodeU16)
../../../libIPLAY/lib//libutil.a(util_U16ToU08.o)
                              ../../../libIPLAY/lib//libfile.a(dir.o) (mpx_UtilU16ToU08)
../../../libIPLAY/lib//libutil.a(util_Asc2Uni.o)
                              ../object/UI_FileSystem.o (mpx_UtilAsc2Uni)
../../../libIPLAY/lib//libRecord.a(record_task.o)
                              ../../../libIPLAY/lib//libavipacker.a(AVI_packerAPI.o) (fps_record)
../../../libIPLAY/lib//libtouchctrl.a(tcapi.o)
                              ../../lib//libui.a(uiTouchCtrller.o) (mpx_TcFunctionsStartup)
../../../libIPLAY/lib//libtouchctrl.a(touchCtrller.o)
                              ../../../libIPLAY/lib//libtouchctrl.a(tcapi.o) (TcFuncConstruct)
../../../libIPLAY/lib//libtouchctrl.a(tc_gt911.o)
                              ../../../libIPLAY/lib//libtouchctrl.a(touchCtrller.o) (TcDriverInit)
../../../libIPLAY/lib//libxpg.a(xpg.o)
                              ../object/xpgFunc.o (g_pstXpgMovie)
../../../libIPLAY/lib//libxpg.a(xpgMovie.o)
                              ../../../libIPLAY/lib//libxpg.a(xpg.o) (xpgMovieInit)
../../../libIPLAY/lib//libxpg.a(xpgUtil.o)
                              ../../../libIPLAY/lib//libxpg.a(xpg.o) (xpgInitMemory)
../../../libIPLAY/lib//libxpg.a(xpgSprite.o)
                              ../../../libIPLAY/lib//libxpg.a(xpgMovie.o) (xpgSpriteCopy)
../../../libIPLAY/lib//libxpg.a(xpgRole.o)
                              ../../../libIPLAY/lib//libxpg.a(xpg.o) (xpgRoleRelease)
../../../libIPLAY/lib//libxpg.a(xpgReader.o)
                              ../../../libIPLAY/lib//libxpg.a(xpg.o) (xpgLoadMovie)
../../../libIPLAY/lib//libxpg.a(xpgDraw.o)
                              ../object/main.o (xpgInitCanvas)
../../../libIPLAY/lib//libxpg.a(xpgUi.o)
                              ../object/main.o (xpgProcessEvent)
/cygdrive/e/mips/bin/../lib/gcc-lib/lexra-mpx-elf/3.2.1/../../../../lexra-mpx-elf/lib/soft-float/libc.a(memcmp.o)
                              ../../../libIPLAY/lib//libMcard.a(NandPhyAdv_Mp650.o) (memcmp)
/cygdrive/e/mips/bin/../lib/gcc-lib/lexra-mpx-elf/3.2.1/../../../../lexra-mpx-elf/lib/soft-float/libc.a(memcpy.o)
                              ../object/main.o (memcpy)
/cygdrive/e/mips/bin/../lib/gcc-lib/lexra-mpx-elf/3.2.1/../../../../lexra-mpx-elf/lib/soft-float/libc.a(memset.o)
                              ../object/ui_timer.o (memset)
/cygdrive/e/mips/bin/../lib/gcc-lib/lexra-mpx-elf/3.2.1/../../../../lexra-mpx-elf/lib/soft-float/libc.a(setjmp.o)
                              ../../../libIPLAY/lib//libjpeg.a(jpeg_decoder.o) (setjmp)
/cygdrive/e/mips/bin/../lib/gcc-lib/lexra-mpx-elf/3.2.1/../../../../lexra-mpx-elf/lib/soft-float/libc.a(sprintf.o)
                              ../object/isp.o (sprintf)
/cygdrive/e/mips/bin/../lib/gcc-lib/lexra-mpx-elf/3.2.1/../../../../lexra-mpx-elf/lib/soft-float/libc.a(strcat.o)
                              ../../../libIPLAY/lib//libfile.a(file.o) (strcat)
/cygdrive/e/mips/bin/../lib/gcc-lib/lexra-mpx-elf/3.2.1/../../../../lexra-mpx-elf/lib/soft-float/libc.a(strchr.o)
                              ../../../libIPLAY/lib//libfile.a(dir.o) (strchr)
/cygdrive/e/mips/bin/../lib/gcc-lib/lexra-mpx-elf/3.2.1/../../../../lexra-mpx-elf/lib/soft-float/libc.a(strcpy.o)
                              ../../../libIPLAY/lib//libfile.a(file.o) (strcpy)
/cygdrive/e/mips/bin/../lib/gcc-lib/lexra-mpx-elf/3.2.1/../../../../lexra-mpx-elf/lib/soft-float/libc.a(strlen.o)
                              ../../../libIPLAY/lib//libsystem.a(SetTabFunc.o) (strlen)
/cygdrive/e/mips/bin/../lib/gcc-lib/lexra-mpx-elf/3.2.1/../../../../lexra-mpx-elf/lib/soft-float/libc.a(toupper.o)
                              ../../../libIPLAY/lib//libfile.a(file.o) (toupper)
/cygdrive/e/mips/bin/../lib/gcc-lib/lexra-mpx-elf/3.2.1/../../../../lexra-mpx-elf/lib/soft-float/libc.a(vfprintf.o)
                              /cygdrive/e/mips/bin/../lib/gcc-lib/lexra-mpx-elf/3.2.1/../../../../lexra-mpx-elf/lib/soft-float/libc.a(sprintf.o) (vfprintf)
/cygdrive/e/mips/bin/../lib/gcc-lib/lexra-mpx-elf/3.2.1/../../../../lexra-mpx-elf/lib/soft-float/libc.a(vsnprintf.o)
                              ../../../libIPLAY/lib//libmpapi.a(mpTrace.o) (vsnprintf)
/cygdrive/e/mips/bin/../lib/gcc-lib/lexra-mpx-elf/3.2.1/../../../../lexra-mpx-elf/lib/soft-float/libc.a(wsetup.o)
                              /cygdrive/e/mips/bin/../lib/gcc-lib/lexra-mpx-elf/3.2.1/../../../../lexra-mpx-elf/lib/soft-float/libc.a(vfprintf.o) (__swsetup)
/cygdrive/e/mips/bin/../lib/gcc-lib/lexra-mpx-elf/3.2.1/../../../../lexra-mpx-elf/lib/soft-float/libc.a(ctype_.o)
                              /cygdrive/e/mips/bin/../lib/gcc-lib/lexra-mpx-elf/3.2.1/../../../../lexra-mpx-elf/lib/soft-float/libc.a(toupper.o) (_ctype_)
/cygdrive/e/mips/bin/../lib/gcc-lib/lexra-mpx-elf/3.2.1/../../../../lexra-mpx-elf/lib/soft-float/libc.a(dtoa.o)
                              /cygdrive/e/mips/bin/../lib/gcc-lib/lexra-mpx-elf/3.2.1/../../../../lexra-mpx-elf/lib/soft-float/libc.a(vfprintf.o) (_dtoa_r)
/cygdrive/e/mips/bin/../lib/gcc-lib/lexra-mpx-elf/3.2.1/../../../../lexra-mpx-elf/lib/soft-float/libc.a(fflush.o)
                              /cygdrive/e/mips/bin/../lib/gcc-lib/lexra-mpx-elf/3.2.1/../../../../lexra-mpx-elf/lib/soft-float/libc.a(vfprintf.o) (fflush)
/cygdrive/e/mips/bin/../lib/gcc-lib/lexra-mpx-elf/3.2.1/../../../../lexra-mpx-elf/lib/soft-float/libc.a(findfp.o)
                              /cygdrive/e/mips/bin/../lib/gcc-lib/lexra-mpx-elf/3.2.1/../../../../lexra-mpx-elf/lib/soft-float/libc.a(vfprintf.o) (__sinit)
/cygdrive/e/mips/bin/../lib/gcc-lib/lexra-mpx-elf/3.2.1/../../../../lexra-mpx-elf/lib/soft-float/libc.a(freer.o)
                              /cygdrive/e/mips/bin/../lib/gcc-lib/lexra-mpx-elf/3.2.1/../../../../lexra-mpx-elf/lib/soft-float/libc.a(wsetup.o) (_free_r)
/cygdrive/e/mips/bin/../lib/gcc-lib/lexra-mpx-elf/3.2.1/../../../../lexra-mpx-elf/lib/soft-float/libc.a(fvwrite.o)
                              /cygdrive/e/mips/bin/../lib/gcc-lib/lexra-mpx-elf/3.2.1/../../../../lexra-mpx-elf/lib/soft-float/libc.a(vfprintf.o) (__sfvwrite)
/cygdrive/e/mips/bin/../lib/gcc-lib/lexra-mpx-elf/3.2.1/../../../../lexra-mpx-elf/lib/soft-float/libc.a(fwalk.o)
                              /cygdrive/e/mips/bin/../lib/gcc-lib/lexra-mpx-elf/3.2.1/../../../../lexra-mpx-elf/lib/soft-float/libc.a(fflush.o) (_fwalk)
/cygdrive/e/mips/bin/../lib/gcc-lib/lexra-mpx-elf/3.2.1/../../../../lexra-mpx-elf/lib/soft-float/libc.a(impure.o)
                              /cygdrive/e/mips/bin/../lib/gcc-lib/lexra-mpx-elf/3.2.1/../../../../lexra-mpx-elf/lib/soft-float/libc.a(sprintf.o) (_impure_ptr)
/cygdrive/e/mips/bin/../lib/gcc-lib/lexra-mpx-elf/3.2.1/../../../../lexra-mpx-elf/lib/soft-float/libc.a(locale.o)
                              /cygdrive/e/mips/bin/../lib/gcc-lib/lexra-mpx-elf/3.2.1/../../../../lexra-mpx-elf/lib/soft-float/libc.a(vfprintf.o) (__mb_cur_max)
/cygdrive/e/mips/bin/../lib/gcc-lib/lexra-mpx-elf/3.2.1/../../../../lexra-mpx-elf/lib/soft-float/libc.a(makebuf.o)
                              /cygdrive/e/mips/bin/../lib/gcc-lib/lexra-mpx-elf/3.2.1/../../../../lexra-mpx-elf/lib/soft-float/libc.a(wsetup.o) (__smakebuf)
/cygdrive/e/mips/bin/../lib/gcc-lib/lexra-mpx-elf/3.2.1/../../../../lexra-mpx-elf/lib/soft-float/libc.a(mallocr.o)
                              /cygdrive/e/mips/bin/../lib/gcc-lib/lexra-mpx-elf/3.2.1/../../../../lexra-mpx-elf/lib/soft-float/libc.a(freer.o) (__malloc_av_)
/cygdrive/e/mips/bin/../lib/gcc-lib/lexra-mpx-elf/3.2.1/../../../../lexra-mpx-elf/lib/soft-float/libc.a(mbtowc_r.o)
                              /cygdrive/e/mips/bin/../lib/gcc-lib/lexra-mpx-elf/3.2.1/../../../../lexra-mpx-elf/lib/soft-float/libc.a(vfprintf.o) (_mbtowc_r)
/cygdrive/e/mips/bin/../lib/gcc-lib/lexra-mpx-elf/3.2.1/../../../../lexra-mpx-elf/lib/soft-float/libc.a(memchr.o)
                              /cygdrive/e/mips/bin/../lib/gcc-lib/lexra-mpx-elf/3.2.1/../../../../lexra-mpx-elf/lib/soft-float/libc.a(vfprintf.o) (memchr)
/cygdrive/e/mips/bin/../lib/gcc-lib/lexra-mpx-elf/3.2.1/../../../../lexra-mpx-elf/lib/soft-float/libc.a(memmove.o)
                              /cygdrive/e/mips/bin/../lib/gcc-lib/lexra-mpx-elf/3.2.1/../../../../lexra-mpx-elf/lib/soft-float/libc.a(fvwrite.o) (memmove)
/cygdrive/e/mips/bin/../lib/gcc-lib/lexra-mpx-elf/3.2.1/../../../../lexra-mpx-elf/lib/soft-float/libc.a(mlock.o)
                              /cygdrive/e/mips/bin/../lib/gcc-lib/lexra-mpx-elf/3.2.1/../../../../lexra-mpx-elf/lib/soft-float/libc.a(freer.o) (__malloc_lock)
/cygdrive/e/mips/bin/../lib/gcc-lib/lexra-mpx-elf/3.2.1/../../../../lexra-mpx-elf/lib/soft-float/libc.a(mprec.o)
                              /cygdrive/e/mips/bin/../lib/gcc-lib/lexra-mpx-elf/3.2.1/../../../../lexra-mpx-elf/lib/soft-float/libc.a(dtoa.o) (_Balloc)
/cygdrive/e/mips/bin/../lib/gcc-lib/lexra-mpx-elf/3.2.1/../../../../lexra-mpx-elf/lib/soft-float/libc.a(reallocr.o)
                              /cygdrive/e/mips/bin/../lib/gcc-lib/lexra-mpx-elf/3.2.1/../../../../lexra-mpx-elf/lib/soft-float/libc.a(fvwrite.o) (_realloc_r)
/cygdrive/e/mips/bin/../lib/gcc-lib/lexra-mpx-elf/3.2.1/../../../../lexra-mpx-elf/lib/soft-float/libc.a(s_isinf.o)
                              /cygdrive/e/mips/bin/../lib/gcc-lib/lexra-mpx-elf/3.2.1/../../../../lexra-mpx-elf/lib/soft-float/libc.a(vfprintf.o) (isinf)
/cygdrive/e/mips/bin/../lib/gcc-lib/lexra-mpx-elf/3.2.1/../../../../lexra-mpx-elf/lib/soft-float/libc.a(s_isnan.o)
                              /cygdrive/e/mips/bin/../lib/gcc-lib/lexra-mpx-elf/3.2.1/../../../../lexra-mpx-elf/lib/soft-float/libc.a(vfprintf.o) (isnan)
/cygdrive/e/mips/bin/../lib/gcc-lib/lexra-mpx-elf/3.2.1/../../../../lexra-mpx-elf/lib/soft-float/libc.a(sbrkr.o)
                              /cygdrive/e/mips/bin/../lib/gcc-lib/lexra-mpx-elf/3.2.1/../../../../lexra-mpx-elf/lib/soft-float/libc.a(freer.o) (_sbrk_r)
/cygdrive/e/mips/bin/../lib/gcc-lib/lexra-mpx-elf/3.2.1/../../../../lexra-mpx-elf/lib/soft-float/libc.a(stdio.o)
                              /cygdrive/e/mips/bin/../lib/gcc-lib/lexra-mpx-elf/3.2.1/../../../../lexra-mpx-elf/lib/soft-float/libc.a(findfp.o) (__sread)
/cygdrive/e/mips/bin/../lib/gcc-lib/lexra-mpx-elf/3.2.1/../../../../lexra-mpx-elf/lib/soft-float/libc.a(strcmp.o)
                              /cygdrive/e/mips/bin/../lib/gcc-lib/lexra-mpx-elf/3.2.1/../../../../lexra-mpx-elf/lib/soft-float/libc.a(locale.o) (strcmp)
/cygdrive/e/mips/bin/../lib/gcc-lib/lexra-mpx-elf/3.2.1/../../../../lexra-mpx-elf/lib/soft-float/libc.a(writer.o)
                              /cygdrive/e/mips/bin/../lib/gcc-lib/lexra-mpx-elf/3.2.1/../../../../lexra-mpx-elf/lib/soft-float/libc.a(stdio.o) (_write_r)
/cygdrive/e/mips/bin/../lib/gcc-lib/lexra-mpx-elf/3.2.1/../../../../lexra-mpx-elf/lib/soft-float/libc.a(callocr.o)
                              /cygdrive/e/mips/bin/../lib/gcc-lib/lexra-mpx-elf/3.2.1/../../../../lexra-mpx-elf/lib/soft-float/libc.a(mprec.o) (_calloc_r)
/cygdrive/e/mips/bin/../lib/gcc-lib/lexra-mpx-elf/3.2.1/../../../../lexra-mpx-elf/lib/soft-float/libc.a(closer.o)
                              /cygdrive/e/mips/bin/../lib/gcc-lib/lexra-mpx-elf/3.2.1/../../../../lexra-mpx-elf/lib/soft-float/libc.a(stdio.o) (_close_r)
/cygdrive/e/mips/bin/../lib/gcc-lib/lexra-mpx-elf/3.2.1/../../../../lexra-mpx-elf/lib/soft-float/libc.a(fstatr.o)
                              /cygdrive/e/mips/bin/../lib/gcc-lib/lexra-mpx-elf/3.2.1/../../../../lexra-mpx-elf/lib/soft-float/libc.a(makebuf.o) (_fstat_r)
/cygdrive/e/mips/bin/../lib/gcc-lib/lexra-mpx-elf/3.2.1/../../../../lexra-mpx-elf/lib/soft-float/libc.a(lseekr.o)
                              /cygdrive/e/mips/bin/../lib/gcc-lib/lexra-mpx-elf/3.2.1/../../../../lexra-mpx-elf/lib/soft-float/libc.a(stdio.o) (_lseek_r)
/cygdrive/e/mips/bin/../lib/gcc-lib/lexra-mpx-elf/3.2.1/../../../../lexra-mpx-elf/lib/soft-float/libc.a(readr.o)
                              /cygdrive/e/mips/bin/../lib/gcc-lib/lexra-mpx-elf/3.2.1/../../../../lexra-mpx-elf/lib/soft-float/libc.a(stdio.o) (_read_r)
/cygdrive/e/mips/bin/../lib/gcc-lib/lexra-mpx-elf/3.2.1/../../../../lexra-mpx-elf/lib/soft-float/libc.a(reent.o)
                              /cygdrive/e/mips/bin/../lib/gcc-lib/lexra-mpx-elf/3.2.1/../../../../lexra-mpx-elf/lib/soft-float/libc.a(sbrkr.o) (errno)
/cygdrive/e/mips/bin/../lib/gcc-lib/lexra-mpx-elf/3.2.1/soft-float/libgcc.a(_udivdi3.o)
                              /cygdrive/e/mips/bin/../lib/gcc-lib/lexra-mpx-elf/3.2.1/../../../../lexra-mpx-elf/lib/soft-float/libc.a(vfprintf.o) (__udivdi3)
/cygdrive/e/mips/bin/../lib/gcc-lib/lexra-mpx-elf/3.2.1/soft-float/libgcc.a(_umoddi3.o)
                              /cygdrive/e/mips/bin/../lib/gcc-lib/lexra-mpx-elf/3.2.1/../../../../lexra-mpx-elf/lib/soft-float/libc.a(vfprintf.o) (__umoddi3)
/cygdrive/e/mips/bin/../lib/gcc-lib/lexra-mpx-elf/3.2.1/soft-float/libgcc.a(_addsub_df.o)
                              /cygdrive/e/mips/bin/../lib/gcc-lib/lexra-mpx-elf/3.2.1/../../../../lexra-mpx-elf/lib/soft-float/libc.a(dtoa.o) (dpadd)
/cygdrive/e/mips/bin/../lib/gcc-lib/lexra-mpx-elf/3.2.1/soft-float/libgcc.a(_mul_df.o)
                              /cygdrive/e/mips/bin/../lib/gcc-lib/lexra-mpx-elf/3.2.1/../../../../lexra-mpx-elf/lib/soft-float/libc.a(dtoa.o) (dpmul)
/cygdrive/e/mips/bin/../lib/gcc-lib/lexra-mpx-elf/3.2.1/soft-float/libgcc.a(_div_df.o)
                              /cygdrive/e/mips/bin/../lib/gcc-lib/lexra-mpx-elf/3.2.1/../../../../lexra-mpx-elf/lib/soft-float/libc.a(dtoa.o) (dpdiv)
/cygdrive/e/mips/bin/../lib/gcc-lib/lexra-mpx-elf/3.2.1/soft-float/libgcc.a(_compare_df.o)
                              /cygdrive/e/mips/bin/../lib/gcc-lib/lexra-mpx-elf/3.2.1/../../../../lexra-mpx-elf/lib/soft-float/libc.a(vfprintf.o) (dpcmp)
/cygdrive/e/mips/bin/../lib/gcc-lib/lexra-mpx-elf/3.2.1/soft-float/libgcc.a(_si_to_df.o)
                              /cygdrive/e/mips/bin/../lib/gcc-lib/lexra-mpx-elf/3.2.1/../../../../lexra-mpx-elf/lib/soft-float/libc.a(dtoa.o) (litodp)
/cygdrive/e/mips/bin/../lib/gcc-lib/lexra-mpx-elf/3.2.1/soft-float/libgcc.a(_df_to_si.o)
                              /cygdrive/e/mips/bin/../lib/gcc-lib/lexra-mpx-elf/3.2.1/../../../../lexra-mpx-elf/lib/soft-float/libc.a(dtoa.o) (dptoli)
/cygdrive/e/mips/bin/../lib/gcc-lib/lexra-mpx-elf/3.2.1/soft-float/libgcc.a(_thenan_df.o)
                              /cygdrive/e/mips/bin/../lib/gcc-lib/lexra-mpx-elf/3.2.1/soft-float/libgcc.a(_addsub_df.o) (__thenan_df)
/cygdrive/e/mips/bin/../lib/gcc-lib/lexra-mpx-elf/3.2.1/soft-float/libgcc.a(_clz.o)
                              /cygdrive/e/mips/bin/../lib/gcc-lib/lexra-mpx-elf/3.2.1/soft-float/libgcc.a(_udivdi3.o) (__clz_tab)
/cygdrive/e/mips/bin/../lib/gcc-lib/lexra-mpx-elf/3.2.1/soft-float/libgcc.a(_pack_df.o)
                              /cygdrive/e/mips/bin/../lib/gcc-lib/lexra-mpx-elf/3.2.1/soft-float/libgcc.a(_addsub_df.o) (__pack_d)
/cygdrive/e/mips/bin/../lib/gcc-lib/lexra-mpx-elf/3.2.1/soft-float/libgcc.a(_unpack_df.o)
                              /cygdrive/e/mips/bin/../lib/gcc-lib/lexra-mpx-elf/3.2.1/soft-float/libgcc.a(_addsub_df.o) (__unpack_d)
/cygdrive/e/mips/bin/../lib/gcc-lib/lexra-mpx-elf/3.2.1/soft-float/libgcc.a(_fpcmp_parts_df.o)
                              /cygdrive/e/mips/bin/../lib/gcc-lib/lexra-mpx-elf/3.2.1/soft-float/libgcc.a(_compare_df.o) (__fpcmp_parts_d)
../../../libIPLAY/lib//libbios.a(startup.o)
                              ../../../libIPLAY/lib//libos.a(memory.o) (FlushDataCache)
../../../libIPLAY/lib//libbios.a(MP650_uart.o)
                              ../../../libIPLAY/lib//libmpapi.a(mpTrace.o) (Uart1Isr)
../../../libIPLAY/lib//libos.a(semaphore.o)
                              ../../../libIPLAY/lib//libMcard.a(mcard.o) (SemaphoreCreate)
../../../libIPLAY/lib//libdisplay.a(ipu.o)
                              ../../../libIPLAY/lib//libimage.a(jpeg_hal.o) (TurnOffIPUClk)
../../../libIPLAY/lib//libimage.a(jpegEncode.o)
                              ../../../libIPLAY/lib//libmpapi.a(mpImageFileApi.o) (Img2Jpeg_WithQTable)
../../../libIPLAY/lib//libmpapi.a(mpImageRotateApi.o)
                              ../../../libIPLAY/lib//libxpg.a(xpgDraw.o) (Img_Rotate90)
../../../libIPLAY/lib//libdemux.a(board.o)
                              /cygdrive/e/mips/bin/../lib/gcc-lib/lexra-mpx-elf/3.2.1/../../../../lexra-mpx-elf/lib/soft-float/libc.a(sbrkr.o) (sbrk)

Allocating common symbols
Common symbol       size              file

SensorInWin         0x40              ../../../libIPLAY/lib//libsensor.a(sensor_manager.o)
g_stScalerPara      0x26              ../../../libIPLAY/lib//libdisplay.a(scaler_650.o)
avifile             0x34              ../../../libIPLAY/lib//libavipacker.a(AVI_Packer.o)
baSymbolTable       0x150             ../../../libIPLAY/lib//libimage.a(jpeg_hal.o)
g_OsdLine           0x140             ../object/xpgFunc.o
fname               0x12              ../../../libIPLAY/lib//libRecord.a(record_task.o)
g_sJpegStream       0x40              ../../../libIPLAY/lib//libimage.a(jpeg_hal.o)
stXpgMovieStream    0x10              ../../../libIPLAY/lib//libxpg.a(xpgUtil.o)
trg                 0x10              ../../../libIPLAY/lib//libdisplay.a(ipu.o)
st_aviStmCache      0x14              ../../../libIPLAY/lib//libavipacker.a(AVI_Stream.o)
McardMailBuf        0x280             ../../../libIPLAY/lib//libMcard.a(mcard.o)
bDataBuf            0x50              ../../../libIPLAY/lib//libxpg.a(xpgReader.o)
wavformatex         0x10              ../../../libIPLAY/lib//libavipacker.a(AVI_Packer.o)
rec_argument        0x14              ../../../libIPLAY/lib//libRecord.a(record_task.o)
sWin                0x40              ../../../libIPLAY/lib//libdisplay.a(imgWin.o)
g_sJpeg             0x130             ../../../libIPLAY/lib//libimage.a(jpeg_hal.o)
g_stBrowser         0x160             ../../../libIPLAY/lib//libfile.a(filebrowser.o)
xpgUpdateFuncPtr    0x14              ../object/xpgFunc.o
IspAreaArray        0x80              ../../../libIPLAY/lib//libsystem.a(ISP_Nand.o)
waBaseTable         0x80              ../../../libIPLAY/lib//libimage.a(jpeg_hal.o)
src                 0x10              ../../../libIPLAY/lib//libdisplay.a(ipu.o)
g_sXpgCanvasWin     0x20              ../../../libIPLAY/lib//libxpg.a(xpgDraw.o)
stNoteChain         0x14              ../../../libIPLAY/lib//libimage.a(jpegEncode.o)
gSetupMenuValue     0xa0              ../object/Setup.o
g_stXpgMovie        0x45ec            ../../../libIPLAY/lib//libxpg.a(xpg.o)
baMinTable          0x40              ../../../libIPLAY/lib//libimage.a(jpeg_hal.o)
g_sMovieWin         0x20              ../../../libIPLAY/lib//libsystem.a(global612.o)
charColor           0xe               ../../../libIPLAY/lib//libjpeg.a(jpeg_decoder.o)
psMcardDev          0x4               ../../../libIPLAY/lib//libMcard.a(mcard.o)
sdbuf_left          0x4               ../../../libIPLAY/lib//libjpeg.a(jpeg_decoder.o)
errno               0x4               /cygdrive/e/mips/bin/../lib/gcc-lib/lexra-mpx-elf/3.2.1/../../../../lexra-mpx-elf/lib/soft-float/libc.a(reent.o)
psCurrWin           0x4               ../../../libIPLAY/lib//libdisplay.a(imgWin.o)
xpgActionFunctions  0x4               ../../../libIPLAY/lib//libxpg.a(xpgUi.o)
StatusTypeFlag      0x4               ../../../libIPLAY/lib//libMcard.a(NandFTL.o)
g_pMovieScreenWin   0x4               ../../../libIPLAY/lib//libsystem.a(SystemConfig.o)
jpg_size_2          0x4               ../../../libIPLAY/lib//libavipacker.a(AVI_Stream.o)
g_MinidvMode        0x4               ../object/xpgFunc.o
boVideoPreview      0x4               ../../../libIPLAY/lib//libmpapi.a(api_main.o)
getpicturebuf       0x4               ../../../libIPLAY/lib//libavipacker.a(AVI_Stream.o)
test285flag         0x4               ../../../libIPLAY/lib//libjpeg.a(jpeg_decoder.o)
chunksize           0x4               ../../../libIPLAY/lib//libavipacker.a(AVI_Packer.o)
E_FILE_OP_TYPE      0x4               ../object/main.o
LogBlkStatus        0x4               ../../../libIPLAY/lib//libMcard.a(NandFTL.o)
g_pXpgCanvasWin     0x4               ../../../libIPLAY/lib//libxpg.a(xpgDraw.o)
psNextWin           0x4               ../../../libIPLAY/lib//libdisplay.a(imgWin.o)
g_dwRecordStartTime
                    0x4               ../../../libIPLAY/lib//libavipacker.a(AVI_packerAPI.o)
idx_1               0x4               ../../../libIPLAY/lib//libavipacker.a(AVI_packerAPI.o)
st_AFMinWidth       0x2               ../object/xpgProcSensorData.o
st_wAFStartY        0x2               ../object/xpgProcSensorData.o
st_AFLastWidth      0x2               ../object/xpgProcSensorData.o
st_wAFStartX        0x2               ../object/xpgProcSensorData.o
st_wWhiteWidth      0x2               ../object/xpgProcSensorData.o
st_bAFReturnTimes   0x1               ../object/xpgProcSensorData.o
st_bAFFirsetTry     0x1               ../object/xpgProcSensorData.o

Memory Configuration

Name             Origin             Length             Attributes
MEMORY_SIZE      0x0000000080002000 0x0000000002000000
*default*        0x0000000000000000 0xffffffffffffffff

Linker script and memory map


.boot           0x0000000080000010       0x5c
 *(.boot)
 .boot          0x0000000080000010       0x5c ../../../libIPLAY/lib//libbios.a(startup.o)
                0x0000000080000010                Boot

.vector         0x0000000080000080      0x408
 *(.vector)
 .vector        0x0000000080000080      0x408 ../../../libIPLAY/lib//libbios.a(exception.o)

.text           0x0000000080002000    0xb4818
                0x0000000080002000                . = ALIGN (0x20)
 *(.adjustpll)
 .adjustpll     0x0000000080002000       0x28 ../../../libIPLAY/lib//libbios.a(hal_Ckg.o)
                0x0000000080002040                . = ALIGN (0x20)
 *fill*         0x0000000080002028 0x100000018 00
 *fill*         0x0000000080002040 0x100000000 00
 *(.adjustmemcs)
 .adjustmemcs   0x0000000080002040       0x28 ../../../libIPLAY/lib//libbios.a(hal_Ckg.o)
                0x0000000080002080                . = ALIGN (0x20)
 *fill*         0x0000000080002068 0x100000018 00
 *fill*         0x0000000080002080 0x100000000 00
 *(.pwdcwait)
                0x0000000080002080                . = ALIGN (0x20)
 *(.memfreqchg)
 .memfreqchg    0x0000000080002080      0xdec ../../../libIPLAY/lib//libbios.a(hal_Ckg.o)
                0x0000000080002080                Clock_SystemFrequencyChange
                0x0000000080002e80                . = ALIGN (0x20)
 *fill*         0x0000000080002e6c 0x100000014 00
 *fill*         0x0000000080002e80 0x100000000 00
 *(.setdramtiming)
 .setdramtiming
                0x0000000080002e80       0x10 ../../../libIPLAY/lib//libbios.a(hal_Ckg.o)
                0x0000000080002e80                Clock_DRAM_timing_Set
                0x0000000080002e88                Clock_DllDelay_Set
                0x0000000080002ea0                . = ALIGN (0x20)
 *fill*         0x0000000080002e90 0x100000010 00
 *fill*         0x0000000080002ea0 0x100000000 00
 *(.dlldelay)
                0x0000000080002ea0                . = ALIGN (0x4)
 *(.eh_frame)
 .eh_frame      0x0000000080002ea0       0x48 /cygdrive/e/mips/bin/../lib/gcc-lib/lexra-mpx-elf/3.2.1/soft-float/libgcc.a(_udivdi3.o)
 .eh_frame      0x0000000080002ee8       0x48 /cygdrive/e/mips/bin/../lib/gcc-lib/lexra-mpx-elf/3.2.1/soft-float/libgcc.a(_umoddi3.o)
 *(.rodata.str1.4)
 *(.text)
 .text          0x0000000080002f30     0x2ccc ../object/main.o
                0x0000000080002f30                AutoISP
                0x00000000800032f8                main
                0x0000000080003134                DisplayColorTest
 .text          0x0000000080005bfc      0xb20 ../object/ui_timer.o
                0x0000000080005bfc                Ui_TimerProcRemove
                0x00000000800061b0                CheckTimerAction
                0x0000000080005fa8                Ui_TimerProcessHandle
                0x00000000800063c8                HHMMSSExceptionTaskDeInit
                0x00000000800063a4                xpgGetclockTimerCreated
                0x000000008000636c                Ui_TimerProcResume
                0x00000000800060d4                Ui_TimerProcessCheck
                0x00000000800062d0                Ui_TimerProcInit
                0x0000000080006334                Ui_TimerProcPause
                0x0000000080005d14                Ui_TimerProcAdd
 .text          0x000000008000671c      0xe94 ../object/xpgFunc.o
                0x000000008000679c                xpgInitOsdTimeBar
                0x0000000080006d9c                xpgStopAllAction
                0x0000000080006870                xpgGetFuncPtr
                0x0000000080006800                xpgUpdateFuncPtrInit
                0x0000000080006adc                OsdLineSet
                0x0000000080007474                xpgCb_EnterSetupPage
                0x0000000080006f50                xpgCb_PressLeftKey
                0x0000000080006ef0                xpgCb_NullFunc
                0x0000000080007008                xpgCb_PressEnterKey
                0x0000000080006f94                xpgCb_PressRightKey
                0x0000000080007068                GetNewCaptureHandle
                0x0000000080006a60                OsdLineInit
                0x0000000080006eb8                xpgDelay
                0x00000000800074e8                xpgCb_EnterPhotoViewPage
                0x0000000080006a0c                Free_Cache_BGWin
                0x00000000800067bc                xpgUpdateEQInfo
                0x0000000080006898                Idu_Cache_BGWin
                0x0000000080007570                Timer_FirstEnterCamPreview
                0x000000008000673c                xpgUpdateOsdTimeBar
                0x0000000080006c1c                xpgUpdatePageOsd
                0x0000000080007048                xpgCb_PressExitKey
                0x00000000800069cc                Idu_GetCache_BGWin
                0x0000000080006f10                xpgCb_PressUpKey
                0x00000000800073d4                xpgCb_EnterCamcoderPreview
                0x0000000080007158                xpgCb_CaptureWinToFile
                0x0000000080006e4c                xpgGotoNewPageInit
                0x000000008000671c                xpgUpdateTimeBar
                0x0000000080006f30                xpgCb_PressDownKey
                0x00000000800067dc                xpgOsdPopupError
 .text          0x00000000800075b0      0x130 ../object/xpgString.o
                0x00000000800075b0                getstr
                0x0000000080007620                ChangeLanguage
                0x00000000800076a4                IduSetFontSize
 .text          0x00000000800076e0      0x9a0 ../object/imageplayer.o
                0x0000000080007918                ImageDraw_FitToFull
                0x00000000800078f0                Img_GetCDU_DecodeWidth
                0x00000000800078c8                Img_GetOriginalHeight
                0x00000000800076e0                ImageGetDecodeTargetWin
                0x0000000080007d74                ImageScaleFromJPEGTarget
                0x0000000080007770                ImagePlayer_DecodeFile
                0x0000000080007fac                ImageDraw
                0x0000000080007dec                ImageDraw_Decode
                0x0000000080007730                ImagePlayer_CloseFile
                0x0000000080007708                ImageGetDecodeWinType
                0x0000000080007dc4                ImageGetDecodeWin
                0x00000000800078a0                Img_GetOriginalWidth
                0x0000000080007b54                ImageDraw_FitToWidth
 .text          0x0000000080008080      0x714 ../object/Setup.o
                0x0000000080008268                PutDefaultSetupMenuValue
                0x000000008000871c                WriteSetupChg
                0x0000000080008674                SetupMenuInit
                0x0000000080008080                GetDefaultSetupMenuValue
                0x00000000800085c0                PutSetupMenuValueWait
                0x0000000080008654                SetupFunctionEffect
                0x00000000800084bc                PutSetupMenuValue
                0x0000000080008180                Recover_g_psSetupMenu
                0x00000000800086c8                SetupMenuReset
                0x00000000800080fc                Update_gSetupMenuValue
                0x0000000080008754                TimerToWriteSetup
                0x0000000080008364                GetSetupMenuValue
 .text          0x0000000080008794      0xa68 ../object/isp.o
                0x0000000080008e1c                ISP_GetResourceSize
                0x0000000080008794                ISP_UpDateCode
                0x0000000080008e9c                ISP_ChksumVerify
                0x0000000080008e54                ISP_GetResource
 .text          0x00000000800091fc      0x4f0 ../object/xpgDriveFunc.o
                0x000000008000940c                xpgChangeDrive
                0x0000000080009368                xpgGetFirstDrive
                0x00000000800092f0                xpgCheckDriveCount
                0x00000000800091fc                xpgGotoNoCardPage
                0x00000000800095fc                xpgDisableDrive
                0x00000000800092b8                xpgGetDriveCount
                0x000000008000921c                xpgCb_NextCard
                0x00000000800094d8                xpgEnableDrive
 .text          0x00000000800096ec     0x3458 ../object/xpgDrawSprite.o
                0x000000008000b348                xpgDrawSprite_CloseIcon
                0x00000000800099c8                xpgDrawSprite_TextBlackLeft
                0x0000000080009d5c                DrawHiLightBox
                0x000000008000b74c                xpgDrawSprite_Selector
                0x0000000080009810                xpgDrawSprite_TextWhiteLeft
                0x000000008000a90c                xpgDrawSprite_Title
                0x00000000800096ec                xpgDrawSprite_Null
                0x0000000080009778                GetDigitPerTen
                0x000000008000adf8                xpgDrawSprite_Aside
                0x000000008000b3a8                xpgDrawSprite_Text
                0x000000008000b064                xpgDrawSprite_BackIcon
                0x000000008000a3dc                xpgDrawSprite_Background
                0x0000000080009718                xpgDrawSprite
                0x000000008000ca64                xpgDrawSprite_List
                0x000000008000cafc                xpgDrawSprite_Dialog
                0x000000008000a1a0                xpgDrawSprite_ModeIcon
                0x000000008000a8b4                xpgDrawSprite_DarkIcon
                0x000000008000a2f0                xpgDrawSprite_FileView
                0x000000008000a6a0                xpgDrawSprite_LightIcon
                0x0000000080009b5c                xpgDrawSprite_TextBlackCenter
                0x000000008000a424                xpgDrawSprite_Icon
                0x000000008000a03c                xpgDrawSprite_HilightFrame
                0x000000008000a8e0                xpgDrawSprite_Mask
 .text          0x000000008000cb44      0xbd4 ../object/xpgBrowser.o
                0x000000008000d1bc                xpgMenuListPrevPage
                0x000000008000d120                xpgMenuListPrev
                0x000000008000d4b4                xpgCb_OpenFolder
                0x000000008000cbb8                xpgMenuListSetIndex
                0x000000008000cb44                ClrBrowserDrvId
                0x000000008000d6e8                xpgClearCatch
                0x000000008000d564                xpgFileDelete
                0x000000008000d0dc                xpgMenuListNext
                0x000000008000d164                xpgMenuListNextPage
                0x000000008000d45c                xpgCb_EnterPhotoMenu
                0x000000008000d220                xpgChangeMenuMode
 .text          0x000000008000d718       0x94 ../object/platform.o
                0x000000008000d718                PlatformInit
                0x000000008000d774                TurnOffBackLight
                0x000000008000d73c                TurnOnBackLight
 .text          0x000000008000d7ac      0x6e8 ../object/camcorder_func.o
                0x000000008000dbc8                Camcorder_PreviewStop
                0x000000008000db5c                Camcorder_PreviewStart
                0x000000008000d7ac                Camcorder_VideoRecordingPreviewStart
                0x000000008000ddc4                Camcorder_RecordPause
                0x000000008000dc14                Camcorder_RecordStart
                0x000000008000dd78                Camcorder_RecordStop
                0x000000008000de08                Camcorder_RecordResume
 .text          0x000000008000de94      0x72c ../object/UI_FileSystem.o
                0x000000008000e530                UI_FileSystem_EarliestFileRemove
                0x000000008000e0a8                CreatePhotoFileByIndex
                0x000000008000de94                GetMaxDigitName
                0x000000008000e4ec                UI_FileSystem_AutoNameFileCreate
                0x000000008000e264                CreateFileByTime
 .text          0x000000008000e5c0     0xb434 ../object/xpgProcSensorData.o
                0x000000008000f6dc                PrintWinData
                0x0000000080015c84                TimeoutToStopHoldMoto1
                0x000000008000e718                TSPI_Wait_DinHigh
                0x0000000080015e24                MotoHoldTimeoutSet
                0x0000000080017fd4                TimerToNextState
                0x000000008000f828                SetFillProcWinFlag
                0x000000008000ea70                TSPI_Reset
                0x000000008000f078                TSPI_PacketSend
                0x000000008000eaf0                TSPI_Send
                0x0000000080018ad8                TSPI_DataProc
                0x0000000080010394                SearchLeftFiberCenter
                0x000000008000fdc0                SearchLeftFiberBottomEdge
                0x00000000800165b4                MoveVMotorToSpecPosition
                0x0000000080018004                Proc_Weld_State
                0x000000008001971c                ProcIpwFrameEvent
                0x000000008000ef68                TSPI_SendWithCheck
                0x000000008000e9d8                TSPI_Init
                0x000000008001211c                SearchRightFiberCore
                0x00000000800179ec                Proc_AutoFocus
                0x000000008000e690                TSPI_Wait_DinLow
                0x000000008000eeb8                TSPI_TimerToResend
                0x000000008001916c                DisplaySensorOnCurrWin
                0x0000000080018e74                DisplaySensorImage
                0x000000008000e8c0                TSPI_Wait_ClkLow
                0x0000000080016a68                MoveVMotorByPosition
                0x000000008000f204                TSPI_Receiver
                0x00000000800145d8                SearchRightFiberFaceAndTopEdge
                0x00000000800162bc                MoveAFMotor
                0x000000008000f684                SetCachWinNum
                0x0000000080011584                SearchLeftFiberCore
                0x000000008000f9a4                GetBackgroundLevel
                0x0000000080015cec                TimeoutToStopHoldMoto2
                0x000000008001978c                ProcIpwBit0Event
                0x0000000080015370                SearchFiberLowPoint
                0x0000000080018a2c                Proc_SensorData_State
                0x00000000800161b0                TimerToReleaseAllHold
                0x0000000080015dbc                TimeoutToStopHoldMoto4
                0x0000000080016f0c                Discharge
                0x0000000080015b6c                MotorSetStatus
                0x0000000080010bcc                GetReallyData
                0x0000000080017f7c                ResetMotor
                0x0000000080019398                CacheSensorData
                0x0000000080011020                GetFiberBlackLevel
                0x000000008000e830                TSPI_Wait_DoutHigh
                0x000000008000f950                AutoGetFiberLowPoint
                0x0000000080016218                GetMotoIdxByFiberIdx
                0x000000008000e5c0                TSPI_WaitFree
                0x000000008000f888                AutoStartWeld
                0x0000000080016388                MoveHMotorToSpecPosition
                0x00000000800170fc                Proc_GetFiberLowPoint
                0x00000000800175e4                ProcAFData
                0x000000008000e948                TSPI_Wait_ClkHigh
                0x00000000800175a4                ProcAFmotorAction
                0x000000008000e7a8                TSPI_Wait_DoutLow
                0x00000000800137d4                SearchRightFiberBottomEdge
                0x0000000080015d54                TimeoutToStopHoldMoto3
                0x000000008000f660                GetCachWinNum
                0x0000000080013e04                SearchRightFiberCenter
                0x000000008000f5a4                TSPI_Receive_Check
                0x00000000800159ec                DriveMotor
                0x0000000080015134                SearchWholeFiber
                0x0000000080019800                WeldDataInit
                0x0000000080012cc8                SearchLeftFiberFaceAndTopEdge
 .text          0x00000000800199f4      0x200 ../object/xpgPhotoFunc.o
                0x00000000800199f4                NonxpgPhotoView
                0x0000000080019a40                NonxpgEnterPhotoView
 .text          0x0000000080019bf4       0x94 ../../../libIPLAY/lib//libbios.a(exception.o)
                0x0000000080019c44                IntDisable
                0x0000000080019bf4                IntEnable
 .text          0x0000000080019c88      0xb38 ../../../libIPLAY/lib//libbios.a(agent.o)
                0x000000008001a70c                readChar
                0x000000008001a6f8                checkInput
                0x0000000080019d1c                writeWord
                0x000000008001a740                BreakPoint
                0x000000008001a4a4                Restart_AP
                0x000000008001a734                DpWord
                0x0000000080019d9c                readNibble
                0x000000008001a384                replyForLocalBreak
                0x000000008001a7a8                HandlerEnable
                0x000000008001a728                DpString
                0x0000000080019d74                writeCharWord
                0x0000000080019cec                writeString
                0x0000000080019e4c                readWord
                0x0000000080019cc0                writeCharByte
                0x000000008001a228                DebugPrintWord
                0x000000008001a57c                Exception
                0x0000000080019f60                getPacket
                0x000000008001a758                BadInstruction
                0x0000000080019ec4                readVariable
                0x0000000080019f0c                readWordBinary
                0x000000008001a268                singleStep
                0x000000008001a658                DebugPrint
                0x000000008001a6ec                writeChar
                0x000000008001a504                BreakHandler
                0x000000008001a7b4                IsGdbConnect
                0x0000000080019c88                writeByte
                0x000000008001a194                DebugPrintString
                0x000000008001a6b8                agentUartIntInfoChange
                0x0000000080019e14                readByte
                0x000000008001a74c                BreakHandlerIsrCallbackRegister
                0x000000008001a0ac                putPacket
 .text          0x000000008001a7c0     0x1a9c ../../../libIPLAY/lib//libbios.a(hal_Ckg.o)
                0x000000008001c1dc                Clock_Dma_tRP_Get
                0x000000008001ae4c                Clock_Dma_tWTR_Set
                0x000000008001c058                Dma_SecondaryPrioritySet
                0x000000008001b0f8                Clock_MemTypeGet
                0x000000008001be00                Dma_FdmaFifoTimingAdjust
                0x000000008001bef4                Dma_PriorityDefaultSave
                0x000000008001c244                Dma_BiuRequestSuspendSetting
                0x000000008001ae30                Clock_CpuClockSelGet
                0x000000008001b050                Clock_MemFreqGet
                0x000000008001b1c8                Clock_PllCfgSet
                0x000000008001adc8                Clock_CpuClockSelSet
                0x000000008001b168                Clock_IpuClockSelSet
                0x000000008001a7c0                calculatePllParam
                0x000000008001c148                Dma_FourthPrioritySet
                0x000000008001afec                Clock_MemClockSelSet4Pwdc
                0x000000008001c24c                Dma_BiuPghitCheckEnable
                0x000000008001b748                Clock_PllSprdSet
                0x000000008001c1c0                Clock_Dma_tWTR_Get
                0x000000008001ad04                Clock_CpuFreqGet
                0x000000008001aeb0                Clock_Dma_tRP_Set
                0x000000008001c214                Clock_MemClockSelGet
                0x000000008001bf50                Dma_FirstPrioritySet
                0x000000008001af78                Clock_MemClockSelSet
                0x000000008001c254                Clock_DllDelayTuning
                0x000000008001b38c                Clock_PllFreqSet
                0x000000008001b99c                Clock_PllSprdSetByFreq
                0x000000008001b2f8                Clock_PllCfgGet
                0x000000008001c0d0                Dma_ThirdPrioritySet
                0x000000008001c230                Clock_IpuClockSelGet
                0x000000008001ab4c                Clock_PllFreqGet
                0x000000008001c1f8                Clock_Dma_tRCD_Get
                0x000000008001be5c                Dma_PriorityDefault
                0x000000008001af14                Clock_Dma_tRCD_Set
 .text          0x000000008001c25c     0x1720 ../../../libIPLAY/lib//libbios.a(string.o)
                0x000000008001cbf0                mp_vsscanf
                0x000000008001d4e4                mp_strlen
                0x000000008001d454                mp_sscanf
                0x000000008001c25c                mp_vsprintf
                0x000000008001ca78                simple_mp_strtoul
                0x000000008001d480                mp_strcmp
                0x000000008001c894                simple_mp_strtoull
                0x000000008001d560                simple_mp_strtol
                0x000000008001c868                mp_sprintf
                0x000000008001d514                simple_mp_strtoll
 .text          0x000000008001d97c      0x66c ../../../libIPLAY/lib//libos.a(cosmos.o)
                0x000000008001db18                OsInit
                0x000000008001dc1c                ExceptionTagReister
                0x000000008001dbe0                ExceptionTagCheck
                0x000000008001d97c                IdleFuncRegister
                0x000000008001da60                IdleFuncRelease
                0x000000008001dcb4                ExceptionTagRelease
 .text          0x000000008001dfe8      0xed4 ../../../libIPLAY/lib//libos.a(task.o)
                0x000000008001e8b0                TaskTerminate
                0x000000008001e1f4                TaskInsert
                0x000000008001e278                TaskDequeue
                0x000000008001e3ac                TaskDeschedule
                0x000000008001e9bc                TaskSleep
                0x000000008001ebdc                TaskSetSleeping
                0x000000008001eeac                TaskTimeSchedulingInit
                0x000000008001ee3c                TaskContextDeactive
                0x000000008001eea4                TaskTimeSchedulingRegister
                0x000000008001dfe8                TaskContextActive
                0x000000008001ec38                TaskCancelSleeping
                0x000000008001e580                TaskReset
                0x000000008001e1bc                TaskPreempt
                0x000000008001e064                TaskInit
                0x000000008001e7d0                TaskStartupParamGet
                0x000000008001eca0                TaskYield
                0x000000008001ee88                TaskGetPriority
                0x000000008001eb0c                SleepingTaskTimeTick
                0x000000008001eeb4                TaskTimeSchedulingTimeTick
                0x000000008001ed8c                OsExchangeContext
                0x000000008001e980                TaskSetExitHandle
                0x000000008001ee68                TaskGetMe
                0x000000008001e448                TaskCreate
                0x000000008001ee74                TaskGetId
                0x000000008001ece0                TaskChangePriority
                0x000000008001ea50                TaskWakeup
                0x000000008001e2ac                TaskWithdraw
                0x000000008001e354                TaskSchedule
                0x000000008001ed3c                ContextUpdate
                0x000000008001e16c                TaskAppend
                0x000000008001e644                TaskStartup
                0x000000008001ee9c                TaskYieldById
                0x000000008001ee30                ContextStatusGet
 .text          0x000000008001eebc      0x21c ../../../libIPLAY/lib//libos.a(object.o)
                0x000000008001efd8                SemaphoreGetPoint
                0x000000008001ef10                ObjectAllocate
                0x000000008001f098                MessageGetPoint
                0x000000008001eebc                ObjectInit
                0x000000008001efb0                ObjectFree
                0x000000008001f018                EventGetPoint
                0x000000008001f058                MailboxGetPoint
 .text          0x000000008001f0d8      0x5d8 ../../../libIPLAY/lib//libos.a(event.o)
                0x000000008001f3e4                EventWaitWithTO
                0x000000008001f224                EventClear
                0x000000008001f5a8                EventPolling
                0x000000008001f688                EventWait
                0x000000008001f158                EventDestroy
                0x000000008001f0d8                EventCreate
                0x000000008001f28c                EventSet
 .text          0x000000008001f6b0      0x77c ../../../libIPLAY/lib//libos.a(mailbox.o)
                0x000000008001fa58                MailboxDestroy
                0x000000008001f980                MailGetBufferSize
                0x000000008001f720                TagDequeue
                0x000000008001f78c                MailPolling
                0x000000008001f7f0                MailTrack
                0x000000008001f924                MailGetBufferStart
                0x000000008001f890                MailRelease
                0x000000008001f740                MailboxInit
                0x000000008001fca0                MailboxReceive
                0x000000008001f9dc                MailboxCreate
                0x000000008001fb70                MailboxSend
                0x000000008001fd90                MailboxPolling
                0x000000008001f6b0                TagInsert
 .text          0x000000008001fe2c      0x8f0 ../../../libIPLAY/lib//libos.a(message.o)
                0x0000000080020604                MessageGrab
                0x000000008001ffac                RingBufferRead
                0x000000008001fe2c                RingCreate
                0x0000000080020138                MessageDestroy
                0x0000000080020098                MessageCreate
                0x0000000080020250                MessageSend
                0x000000008002048c                MessageReceiveWithTO
                0x00000000800203b4                MessageDrop
                0x000000008001fea8                RingBufferWrite
                0x00000000800206f8                MessageReceive
 .text          0x000000008002071c     0x1d04 ../../../libIPLAY/lib//libos.a(memory.o)
                0x0000000080020f94                User_mem_init
                0x0000000080020f00                mem_free_task_mem
                0x000000008002198c                ext_mem_get_free_space
                0x0000000080021714                MemLeakChk
                0x0000000080021b44                mem_mallocEx
                0x000000008002192c                ext_mem_calloc
                0x0000000080020d58                mem_free
                0x0000000080021070                ker_mem_reallocm
                0x0000000080021b64                ext_mem_callocEx
                0x00000000800209e8                mem_Zones
                0x00000000800208ac                pool_free_task_mem
                0x0000000080021a64                ext_mem_check
                0x0000000080021b14                mem_callocEx
                0x000000008002190c                ext_mem_malloc
                0x0000000080021a2c                ker_mem_free
                0x0000000080021bb4                MemoryAddressToInfo
                0x0000000080021bbc                mem_freeEx
                0x00000000800219cc                FreeTaskUserMem
                0x0000000080021ae4                SetDataCacheInvalid
                0x000000008002194c                ext_mem_free
                0x0000000080021aa4                mem_Relink
                0x0000000080021894                ext_mem_freeEx
                0x0000000080020b6c                mem_malloc
                0x00000000800219fc                ker_mem_init
                0x00000000800218ec                mem_get_free_space_total
                0x0000000080020fec                ker_mem_malloc
                0x0000000080020e0c                mem_reallocm
                0x000000008002120c                ker_mem_free_task_mem
                0x000000008002071c                pool_mem_free
                0x0000000080021ac4                ker_mem_Relink
                0x000000008002159c                MemPoolChk
                0x0000000080021170                ker_mem_get_free_space
                0x000000008002196c                ext_mem_reallocm
                0x0000000080020c64                mem_calloc
                0x0000000080020ee0                mem_get_free_space
                0x0000000080021494                MemLinkChk
                0x00000000800219ac                ext_mem_free_task_mem
                0x0000000080021a84                ker_mem_check
                0x0000000080021b94                ext_mem_mallocEx
                0x00000000800212bc                MemLinkRelink
 .text          0x0000000080022420     0x1170 ../../../libIPLAY/lib//libos.a(systimer.o)
                0x0000000080022504                SystemTimerResume
                0x00000000800226dc                SysTimerProcPause
                0x0000000080022774                SysTimerProcResume
                0x0000000080022a94                SysTimerProcResumeById
                0x0000000080022e04                SystemTimeCheck
                0x0000000080022c50                SystemTimeSecToDateConv
                0x00000000800231b0                bGetMaxDay
                0x0000000080022540                GetSysTime
                0x00000000800230c4                SystemGetTimeStamp
                0x0000000080023250                SystemTimeGet
                0x00000000800232b0                SystemTimeCompensatingVerify
                0x00000000800224c8                SystemTimerPause
                0x0000000080022574                SysTimerProcArgSet
                0x00000000800230e4                SystemTimerInit
                0x0000000080022a3c                SysTimerProcPauseById
                0x0000000080023138                LeapYearCheck
                0x000000008002281c                SysTimerProcReAdd
                0x0000000080023118                SysTimerProcAdd
                0x0000000080022af4                SysTimerProcArgSetById
                0x0000000080022f6c                SystemTimeAlarmSet
                0x00000000800229e0                SysTimerProcRemoveById
                0x0000000080022b58                SystemTimeDateToSecConv
                0x0000000080022624                SysTimerProcRemove
                0x0000000080023280                SystemTimeAlarmGet
                0x0000000080022f1c                SystemTimeSet
                0x0000000080023110                SystemTimerReInit
                0x0000000080023020                get_elapsed_timeL
                0x00000000800230b0                SysTimerStatusGet
                0x000000008002254c                SystemGetElapsedTime
                0x0000000080022fbc                get_cur_timeL
 .text          0x0000000080023590      0x3f8 ../../../libIPLAY/lib//libos.a(interrupt.o)
                0x0000000080023590                DmaIntHandleRegister
                0x0000000080023820                DmaIntHandleRelease
                0x0000000080023804                DmaIntDis
                0x00000000800237e8                DmaIntEna
                0x0000000080023840                SystemIntEna
                0x00000000800236cc                SystemInt
                0x0000000080023620                SystemIntHandleRegister
                0x000000008002385c                SystemIntDis
                0x0000000080023878                SystemIntHandleRelease
                0x0000000080023898                SystemIntInit
 .text          0x0000000080023988     0x12cc ../../../libIPLAY/lib//libMcard.a(mcard.o)
                0x0000000080024758                Mcard_GetDeviceNum
                0x00000000800246d0                GetMcardDevTag4Usb
                0x0000000080023c9c                Mcard_DeviceInit
                0x00000000800247d0                Mcard_GetSectorSize
                0x0000000080024244                CardFatalErrorNotify
                0x0000000080023c58                Mcard_CurCardIDGetLun
                0x0000000080024854                Mcard_GetDetected
                0x00000000800248a4                Mcard_DeviceLunSet
                0x0000000080024984                IspRead
                0x0000000080024a1c                RegisterCardDetectCB
                0x0000000080024818                Mcard_GetAllFlagPresent
                0x0000000080023db4                Mcard_DeviceAsyncRawFormat
                0x0000000080023d28                Mcard_DeviceAsyncWait
                0x0000000080023b64                McardIsr
                0x0000000080024768                Mcard_GetCapacity
                0x00000000800246dc                DmaMcardIsr
                0x00000000800247f4                Mcard_GetFlagPresent
                0x00000000800249b8                IspWrite
                0x0000000080023988                Mcard_Init
                0x0000000080023cfc                Mcard_DeviceAsyncProgress
                0x0000000080023cd4                Mcard_DeviceRead
                0x0000000080024a28                RegisterCardFatalErrorCB
                0x0000000080024718                Mcard_GetDevice
                0x0000000080024880                Mcard_GetCardSubtype
                0x000000008002478c                Mcard_CurLunGetCardID
                0x0000000080024a3c                McardCardDetectionEnable
                0x0000000080024828                Mcard_GetFlagReadOnly
                0x00000000800248fc                Mcard_DeviceRemove
                0x0000000080023f9c                Mcard_DeviceAsyncWrite
                0x000000008002495c                Mcard_DeviceWrite
                0x0000000080023e58                Mcard_DeviceAsyncRead
                0x0000000080024734                Mcard_GetDescriptor
                0x00000000800248c0                Mcard_DeviceClkConfig
                0x00000000800240c4                IspGetInfo
                0x00000000800249ec                IspBlockIsBad
                0x00000000800247ac                Mcard_GetRenewCounter
                0x000000008002414c                IspEraseBlk
                0x0000000080024934                Mcard_DeviceRawFormat
                0x0000000080024698                Mcard_TypeSDCard
                0x0000000080024a34                McardBootUpPowerOff
 .text          0x0000000080024c54     0x48f8 ../../../libIPLAY/lib//libMcard.a(NandFTL.o)
                0x0000000080024f1c                NandFtlInit
                0x0000000080024c54                ftlGenLogicalAddr
                0x00000000800256a0                NandGetWLInfoSize
                0x00000000800254c0                NandInit
                0x00000000800255f4                NandGetWLInfo
                0x000000008002553c                NandSetWLInfo
                0x0000000080025698                DumpFTLTables
                0x00000000800256c8                NandWLInfoUpdate
                0x0000000080024c84                NandFTLInfoInit
                0x0000000080025664                NandIspInit
 .text          0x000000008002954c     0x2a6c ../../../libIPLAY/lib//libMcard.a(NandPhyAdv_Mp650.o)
                0x000000008002a118                GetNandGeometry
                0x0000000080029a60                NandPageWrite
                0x0000000080029d40                badBlockMarkFirst
                0x0000000080029668                NandPageRead
                0x000000008002a2b8                BootPageCheck
                0x000000008002a500                NandInfoDump
                0x000000008002a160                McardNandActive
                0x000000008002ad28                getNandInfo
                0x000000008002ab08                NandFTLEccCheck
                0x000000008002a24c                McardNandInactive
                0x000000008002a0e0                GetNandAvailEccBit
                0x000000008002a048                NandBlockErase
                0x0000000080029e40                badBlockMarkLast
                0x00000000800295ec                CheckSpareContent
                0x0000000080029c90                NandPageCopy
                0x000000008002a5d4                NandIdentify
                0x0000000080029f48                badBlockMark
                0x000000008002954c                GetNandLogAddr
 .text          0x000000008002bfb8     0x1884 ../../../libIPLAY/lib//libMcard.a(SD.o)
                0x000000008002c2e8                SdInit
                0x000000008002c27c                SdProgChk
                0x000000008002bfb8                ParsingSCR
                0x000000008002c370                DetermineSDSlotType
 .text          0x000000008002d83c      0x968 ../../../libIPLAY/lib//libMcard.a(SdPhy_Mp650.o)
                0x000000008002dc88                SdHost_PhyTransfer
                0x000000008002de14                McardSdFreeDataPin
                0x000000008002d83c                SdHost_WaitCardResponse
                0x000000008002df74                SdHost_DataConfig
                0x000000008002dd9c                SdHost_GetResponse
                0x000000008002df3c                McardSdInactive
                0x000000008002df28                SdHost_SetHostBlkLen
                0x000000008002de74                McardSdActive
                0x000000008002d978                SdHost_WaitTransfer
                0x000000008002db80                SdHost_SendCmd
                0x000000008002ddec                SdHost_DmaReset
 .text          0x000000008002e1a4      0xa80 ../../../libIPLAY/lib//libMcard.a(Uti.o)
                0x000000008002eb14                McardPduDisable
                0x000000008002e2ec                GeneratePLLClockTab
                0x000000008002eaa0                McardHwConfig
                0x000000008002e6c4                McardPowerPinConfig
                0x000000008002eb0c                SDPin_Data_Get
                0x000000008002e264                Mcard_TaskYield
                0x000000008002e4a0                SetSD2Clock
                0x000000008002e2cc                CalValue2Exp
                0x000000008002ea04                McardPduEnable
                0x000000008002eadc                SdHost_GetCardWP
                0x000000008002e1a4                MemDump
                0x000000008002e874                McardPowerOff
                0x000000008002e4fc                McardSelect
                0x000000008002e3d8                GetMcardClock
                0x000000008002e5e4                McardDeselect
                0x000000008002ead4                SDPin_WP_Get
                0x000000008002e440                SetMcardClock
                0x000000008002e70c                McardPowerOn
 .text          0x000000008002ec24      0x120 ../../../libIPLAY/lib//libMcard.a(NandIdIdentify.o)
                0x000000008002ec24                NandIdPaserFunInit
 .text          0x000000008002ed44     0x3fac ../../../libIPLAY/lib//libfile.a(dir.o)
                0x0000000080031c00                NextNode
                0x0000000080031f9c                GetDeletedNode
                0x0000000080032098                DirNext
                0x000000008002eeac                PathAPI__MakeDir
                0x0000000080032260                DirLast
                0x000000008002ed44                PathAPI__Cd_Path
                0x0000000080032bc0                RestoreDirNodePosition
                0x0000000080032978                Unlink
                0x0000000080032c90                GetRootDirSize
                0x000000008002fa78                MakeDir
                0x0000000080031440                DeleteAllContentWithinDir
                0x0000000080031fe8                DirFirst
                0x000000008002f25c                PathAPI__RemoveDir_UTF16
                0x0000000080031cf0                GetNewNode
                0x00000000800316e0                DirCaching
                0x00000000800328c4                FdbCopy
                0x0000000080031dd0                NextDeletedNode
                0x000000008003211c                DirPrevious
                0x000000008002f5c8                PathAPI__GetEntriesCountInDir_UTF16
                0x0000000080031ad8                FirstNode
                0x000000008002edf8                PathAPI__Cd_Path_UTF16
                0x000000008002ef6c                PathAPI__MakeDir_UTF16
                0x000000008003056c                MakeDir_UTF16
                0x000000008002f760                UpdateChain
                0x000000008002f818                CdSub
                0x0000000080031254                DeleteDir
                0x0000000080031814                FileDirCaching
                0x00000000800322d4                ScanFileName
                0x0000000080032b20                SaveCurrentDirNodePosition
                0x0000000080031944                DirReset
                0x000000008002f430                PathAPI__GetEntriesCountInDir
                0x00000000800325bc                LongNameCopy
                0x00000000800315b0                DirCaching_for_DirChain
                0x0000000080031b5c                PreviousNode
                0x000000008002f02c                PathAPI__RemoveDir
                0x0000000080031db8                CheckDeletedCount
                0x000000008002f98c                CdParent
 .text          0x0000000080032cf0     0x2298 ../../../libIPLAY/lib//libfile.a(chain.o)
                0x00000000800341a0                ChainWrite
                0x0000000080033118                ChainSeekSet
                0x0000000080032cf0                SectorClear
                0x0000000080033298                ChainSeekForward
                0x0000000080034508                ChainFragmentWrite
                0x0000000080032ef8                LoadAlien16
                0x0000000080033b80                ChainExtending
                0x0000000080032e40                LoadUnalign16
                0x00000000800346fc                ChainFree
                0x0000000080032f4c                SaveAlien16
                0x0000000080032e94                LoadUnalign32
                0x0000000080033074                Is_ChainPoint_EOC_and_At_Boundary
                0x000000008003356c                ChainSeek
                0x0000000080033674                ChainChangeSize
                0x0000000080032fa0                SaveAlien32
                0x0000000080034d10                GetChainTotalSizeByTraverseFatTable
                0x0000000080034030                ChainRead
                0x00000000800348dc                ChainFreeToReserveStartCluster
                0x0000000080034354                ChainFragmentRead
                0x0000000080033d4c                ChainGetContinuity
                0x0000000080033f4c                ChainGetLba
                0x00000000800349d0                ChainCopy
                0x0000000080032dec                ChainInit
                0x0000000080033000                LoadAlienArray16
                0x0000000080033168                ChainSeekEnd
 .text          0x0000000080034f88     0x444c ../../../libIPLAY/lib//libfile.a(drive.o)
                0x0000000080035cdc                DriveTotalSizeGet
                0x0000000080035b70                DriveFreeClustersCountGet
                0x0000000080035978                DriveChange
                0x0000000080035764                SingleDriveDelete
                0x0000000080035c6c                DriveSetcorSizeGet
                0x0000000080035d50                DriveNewClusGet
                0x0000000080036674                DriveRead
                0x0000000080038184                Read_AllocBitmapEntry
                0x0000000080035f2c                QuickFormat
                0x0000000080035ae0                DriveCountUpdate
                0x0000000080036198                DriveRefresh
                0x0000000080037708                GetDrvPartitionInfoFromMBR
                0x000000008003641c                DriveWrite
                0x0000000080037c9c                DumpDevPartitionTableFromMBR
                0x000000008003828c                Set_AllocBitmapEntry
                0x0000000080035c18                DriveFreeSizeGet
                0x00000000800383e8                DriveCurIdGet
                0x00000000800354c8                DriveDelete
                0x0000000080035a50                DriveGet
                0x0000000080034f88                DriveHandleCopy
                0x000000008003802c                SetDrvPresentFlag
                0x00000000800350d4                DriveAdd
                0x0000000080035028                FileSystemInit
                0x00000000800383f4                DriveCountGet
                0x0000000080036880                FatCaching
                0x0000000080037688                RenewAllDrv
 .text          0x00000000800393d4     0xc260 ../../../libIPLAY/lib//libfile.a(file.o)
                0x000000008004064c                GetFilenameOfCurrentNode
                0x0000000080045020                FreeFileHandleCountGet
                0x0000000080043304                GetMovieFileStatistics
                0x000000008003b08c                PathAPI__GetFileAttributeAndTimeInfo
                0x000000008003dc08                EndOfFile
                0x000000008003dd4c                FilePosGet
                0x000000008003aca8                PathAPI__CreateFile_UTF16
                0x000000008003da04                DeleteFile
                0x000000008003ee9c                FileSearch
                0x000000008003af80                PathAPI__RemoveFile_UTF16
                0x000000008003db94                SeekSet
                0x000000008004363c                FileSetDate_for_FATxx
                0x000000008003b650                RamFileAlloc
                0x0000000080044b50                Test_CreateFolder_UTF16
                0x000000008003dd58                FileSizeGet
                0x00000000800436a0                FileSetTime_for_FATxx
                0x0000000080041d34                BuildNewFDB
                0x00000000800432ac                GetAudioFileStatistics
                0x000000008003b4ac                FileOpen
                0x000000008003ba60                FileForceSync
                0x000000008003b73c                FileClose
                0x00000000800442f4                Test_OpenFileByNameForRead
                0x000000008003cd84                CreateFile_UTF16
                0x000000008004343c                Segmentize
                0x0000000080041b18                BuildNewLName
                0x0000000080044c1c                Test_File_NonAlignedBuffer_DMA_WrongDataIssue
                0x00000000800428bc                DirectoryCopy
                0x000000008003fe2c                FileExtRename
                0x0000000080043254                GetImageFileStatistics
                0x00000000800444ec                Test_CreateAndWriteFileByName
                0x00000000800436f8                SetCurFileSortingBasis
                0x000000008003bc88                BuildNewAsciiFilename
                0x000000008003aa94                PathAPI__CreateFile
                0x000000008003dc84                Fseek
                0x0000000080041184                GetFileAttributeAndTimeInfoFromFDB
                0x000000008003b2c4                PathAPI__GetFileAttributeAndTimeInfo_UTF16
                0x000000008003a584                PathAPI__Fopen
                0x0000000080041ffc                FileCopy
                0x0000000080041754                Locate_DirEntryNode_of_SearchInfo
                0x00000000800404d0                FileGetLongName
                0x000000008003ec80                FileSearchLN
                0x000000008003bb70                File_ReleaseSpace_For_OverwriteContent
                0x000000008003b978                FileClose_NoWriteBack
                0x000000008003eb7c                FileGetMediaType
                0x0000000080041514                FileListOpen
                0x000000008004491c                Test_CreateAndWriteFileByName_UTF16_WriteBufferData
                0x000000008004335c                GetFreeFileHandle
                0x00000000800393d4                StreamInit
                0x00000000800435c0                FileGetTime_for_FATxx
                0x000000008003e6e4                FileChain_AdjustSize_TrimExtraClusters
                0x00000000800403cc                FileSort
                0x0000000080042fac                DriveCopyAllFiles
                0x000000008003c270                CreateFile
                0x0000000080039448                PathAPI__Locate_Path
                0x0000000080041a58                FillUniNumber
                0x000000008003f258                FileExtSearch
                0x000000008003e170                FileWrite_withWriteBack_FileSize
                0x0000000080041430                DeleteFileOrFolderOfCurrentFDB
                0x000000008003ae74                PathAPI__RemoveFile
                0x0000000080039c84                PathAPI__Locate_Path_UTF16
                0x0000000080040e4c                GetAsciiShortFilenameOfCurrentNode
                0x0000000080044160                CheckSpaceIfEnough
                0x00000000800437a0                QuickSort
                0x000000008003dd64                FileWrite
                0x000000008004353c                FileGetDate_for_FATxx
                0x0000000080044660                Test_CreateAndWriteFileByName_UTF16
                0x000000008003dac0                Seek
                0x000000008003a818                PathAPI__Fopen_UTF16
                0x00000000800447b4                Test_CreateAndWriteFileByName_WriteBufferData
                0x000000008003fb74                FileExtSearchOpen
                0x0000000080044a64                Test_CreateFolder
                0x000000008003e888                FileRead
                0x0000000080045030                GetCurFileSortingBasis
                0x0000000080045014                FileUiUpdateIconAniFunPtrRegister
 .text          0x0000000080045634     0x308c ../../../libIPLAY/lib//libfile.a(Format.o)
                0x0000000080045634                Fat32_Format
                0x000000008004637c                Drive_Formatting
                0x0000000080046444                DiskPartitioning_WithMaxTwoPartitions
                0x0000000080045f48                Fat12_Format
                0x00000000800468ac                CreateNewDiskPartition
                0x0000000080045afc                Fat16_Format
 .text          0x00000000800486c0     0x186c ../../../libIPLAY/lib//libfile.a(filebrowser.o)
                0x0000000080049f20                fbrowser_xpgChangeDriveFunctionRegister
                0x0000000080049710                FileBrowserGetCurIndex
                0x0000000080049cf4                FileBrowserDeleteFile
                0x0000000080049910                FileGetSearchInfo
                0x00000000800492a8                FileBrowserSearchNextAudio
                0x0000000080048728                FileBrowserGetCurDrive
                0x000000008004989c                FileBrowserGetCurFileType
                0x0000000080048f28                FileBrowserGetFileName
                0x0000000080049f14                fbrowser_xpgUpdateIconAniFunctionRegister
                0x000000008004881c                FileBrowserInitExtArray
                0x00000000800486c0                FileBrowserResetFileList
                0x0000000080049828                FileBrowserGetFileType
                0x00000000800496e0                FileBrowserGetTotalFile
                0x0000000080048d50                FileBrowserListAllFileName
                0x000000008004877c                FileBrowserCheckCurDrive
                0x000000008004956c                FileListSetCurIndex
                0x0000000080048c7c                FileBrowserScanFileList
                0x000000008004937c                FileBrowserSearchNextImage
                0x00000000800488cc                DoSearch
                0x0000000080048a98                FileChangeDirAndResearch
                0x0000000080049988                FileGetCurSearchInfo
                0x0000000080049f08                fbrowser_xpgClearCatchFunctionRegister
                0x0000000080049618                FileListAddCurIndex
                0x00000000800499b0                FileBrowserCopyFile
                0x0000000080049740                FileGetCurLyricInfo
                0x00000000800494d4                FileBrowser_GetCurImageFile
 .text          0x0000000080049f2c     0x1464 ../../../libIPLAY/lib//libperipheral.a(hal_gpio.o)
                0x000000008004a268                Gpio_ValueGet
                0x000000008004afe8                Gpio_Config2GpioFunc
                0x000000008004a7bc                Gpio_IntConfigGet
                0x000000008004ae68                GetGPIOPinIndex
                0x0000000080049f2c                Gpio_DefaultSettingSet
                0x000000008004a298                Gpio_ConfiguraionSet
                0x000000008004a444                Gpio_ConfigurationGet
                0x000000008004a0bc                Gpio_DataSet
                0x000000008004a90c                Gpio_IntEnable
                0x000000008004a570                Gpio_IntInit
                0x000000008004b040                Gpio_GpioInstallStatus
                0x000000008004a4e0                Gpio_DirectionGet
                0x000000008004a1a4                Gpio_DataGet
                0x000000008004af60                GetGpioIntIndexByGpioPinNum
                0x000000008004ad5c                QuickGetGPIOValue
                0x000000008004a9c4                Gpio_IntDisable
                0x000000008004aaec                SetGPIOValue
                0x000000008004a6c4                Gpio_IntConfig
                0x000000008004a8a0                Gpio_IntCallbackFunRegister
                0x000000008004ac0c                GetGPIOValue
 .text          0x000000008004b390      0xd84 ../../../libIPLAY/lib//libperipheral.a(hal_mmcp.o)
                0x000000008004b8c8                mmcp_block_polling
                0x000000008004b894                mmcp_block
                0x000000008004b454                mmcp_memcpy_polling
                0x000000008004b414                mmcp_memcpy
                0x000000008004b838                mmcp_memset
                0x000000008004b6c4                mmcp_memset_u32
 .text          0x000000008004c114      0xcf4 ../../../libIPLAY/lib//libperipheral.a(hal_rtc.o)
                0x000000008004c1fc                RTC_AlarmEnableSet
                0x000000008004ccec                RTC_LowPowerEnable
                0x000000008004cb0c                RTC_SetExt0
                0x000000008004cd24                RTC_ReadCount
                0x000000008004ccfc                RTC_ReadAlarm
                0x000000008004c114                RTC_AlarmSet
                0x000000008004cd38                RTC_SetReservedCount
                0x000000008004c654                RTC_SecCountToleranceAdj
                0x000000008004cd10                RTC_ReadExt0
                0x000000008004c950                RTC_SetExt1
                0x000000008004c534                RTC_AlarmIeEnableSet
                0x000000008004c468                RTC_RAlarmModeSet
                0x000000008004ccf4                RTC_InternalLdoEnable
                0x000000008004cd44                RTC_ReadReservedCount
                0x000000008004ccc8                RTC_RegisterRtcIsrCallback
                0x000000008004c39c                RTC_AlarmOutSet
                0x000000008004c78c                RTC_SetCount
 .text          0x000000008004ce08      0x534 ../../../libIPLAY/lib//libsystem.a(SystemConfig.o)
                0x000000008004d2d8                SystemGetStatus
                0x000000008004ce40                DriveIndex2PhyDevID
                0x000000008004d144                SystemPanelPixelClockGet
                0x000000008004d2bc                SystemClearStatus
                0x000000008004d2f0                SystemClearErrMsg
                0x000000008004d2a0                SystemSetStatus
                0x000000008004d250                SystemPanelSizeGet
                0x000000008004d0f8                SystemSetErrEvent
                0x000000008004cf38                DeviceIndex2DrvName
                0x000000008004d2fc                SystemSetErrMsg
                0x000000008004ce08                PhyDevID2DriveIndex
                0x000000008004ce7c                DriveName2DrvIndexID
                0x000000008004cf78                SystemConfigInit
                0x000000008004cef4                DriveIndex2DrvName
 .text          0x000000008004d33c      0x438 ../../../libIPLAY/lib//libsystem.a(SystemMemory.o)
                0x000000008004d660                SystemGetMemAddr
                0x000000008004d33c                SystemMemoryMapInit
                0x000000008004d6bc                SystemSetMemSize
                0x000000008004d69c                SystemGetMemSize
                0x000000008004d600                SystemMemoryAllocAlignDW
                0x000000008004d680                SystemSetMemAddr
 .text          0x000000008004d774      0x7d0 ../../../libIPLAY/lib//libsystem.a(SystemDrive.o)
                0x000000008004df04                SystemCardDetectCtrlMode
                0x000000008004d9b0                SystemCardFatalErrorEventSet
                0x000000008004dd7c                SystemDeviceInit
                0x000000008004dc3c                SystemCardPresentCheck
                0x000000008004daa0                SystemCardEvent2DrvIdGet
                0x000000008004db9c                SystemCardOutCheck
                0x000000008004dde0                SystemDeviceRemove
                0x000000008004df30                SystemCardCtrlModeGet
                0x000000008004dbdc                SystemCardPlugInCheck
                0x000000008004dc9c                SystemCardSubtypeGet
                0x000000008004ded8                SystemCardProtectCtrlMode
                0x000000008004dea4                SystemCardExceptionRegister
                0x000000008004de44                SystemGetFlagReadOnly
                0x000000008004dd0c                SystemDeviceRawFormat
                0x000000008004d85c                SystemCardEventSet
                0x000000008004df3c                SystemCardStatusPollingEnable
 .text          0x000000008004df44     0x10c8 ../../../libIPLAY/lib//libsystem.a(global612.o)
                0x000000008004eb04                PollWord
                0x000000008004e910                U32CharToU8Buff
                0x000000008004edb8                UTF8ToDCharS2
                0x000000008004ec24                isUTF8Style2
                0x000000008004edb0                UTF8ToDCharS1
                0x000000008004eb74                _PollRegister32
                0x000000008004ea54                ScalerClockReduce
                0x000000008004e474                GetRelativeMs
                0x000000008004ec9c                isUTF8Style4
                0x000000008004ed48                isUTF8Style6
                0x000000008004eacc                PollByte
                0x000000008004ec14                isUTF8Style1
                0x000000008004e508                Polling_Event
                0x000000008004ebf4                SystemExceptionInit
                0x000000008004e4a8                SystemPollingEventIdSet
                0x000000008004e600                U8BuffToU32Char
                0x000000008004ea24                SystemChkChipVer
                0x000000008004ec58                isUTF8Style3
                0x000000008004ee18                UTF8ToDCharS5
                0x000000008004edec                UTF8ToDCharS4
                0x000000008004eb3c                PollDWord
                0x000000008004ebb4                _BusyPollRegister32
                0x000000008004ee54                UTF8ToDCharS6
                0x000000008004e4c8                SystemPollingEventHandlerRegister
                0x000000008004df44                GetSystemErrMsg
                0x000000008004ea90                ScalerClockReset
                0x000000008004edcc                UTF8ToDCharS3
                0x000000008004ecec                isUTF8Style5
 .text          0x000000008004f00c     0x229c ../../../libIPLAY/lib//libsystem.a(ISP_Nand.o)
                0x0000000080050858                IspFunc_WriteFST
                0x000000008004f2a8                NandIspGetStartAddr
                0x0000000080050758                ISP_NandInit
                0x000000008004f00c                checkNandIspRegion
                0x000000008004ff1c                NandEraseFatArea
                0x0000000080050374                NandCodeBackup
                0x000000008004f178                ISP_NandBlockRegister
                0x000000008004fb50                IspFunc_GetMPAPSize
                0x00000000800507ac                IspFunc_ReadAP
                0x000000008004f24c                UnRegisterNandIspBlock
                0x000000008005082c                IspFunc_ReadUST
                0x000000008005004c                NandCodeCheck
                0x00000000800507f4                IspFunc_WriteUST
                0x000000008005074c                ISP_SetNandReservedSize
                0x0000000080050740                ISP_GetNandReservedSize
                0x0000000080050888                IspFunc_ReadFST
                0x000000008004fc4c                IspFunc_GetRESOURCESize
                0x000000008004f15c                xpgDumpNandIspBlock
                0x000000008004f50c                IspFunc_ReadMPAP
                0x00000000800507d0                IspFunc_ReadRES
                0x00000000800508b4                NandEraseAll
                0x000000008004f7a0                IspFunc_ReadRESOURCE
                0x000000008005078c                IspFunc_Read
                0x000000008004f448                IspFunc_Write
                0x000000008004f2e0                NandIspRealRead
                0x000000008004fdf0                NandEraseCodeArea
 .text          0x00000000800512a8      0x2b4 ../../../libIPLAY/lib//libsystem.a(McardDevInfo.o)
                0x00000000800512a8                McardDevInfoStore
                0x0000000080051450                McardDevInfoLoad
 .text          0x000000008005155c      0xce0 ../../../libIPLAY/lib//libsystem.a(SetTabFunc.o)
                0x0000000080051df8                Sys_SettingTableDump
                0x0000000080051ba8                Sys_SettingTablePut
                0x000000008005193c                Sys_SettingTableClose
                0x0000000080051a10                Sys_SettingTableGet
                0x0000000080051e18                Sys_SettingTableClean
                0x000000008005155c                Sys_SettingTableOpen
 .text          0x000000008005223c       0x2c ../../lib//libui.a(uigpio.o)
                0x0000000080052258                Ui_UsbdSetMode
                0x000000008005224c                Ui_GetKey
                0x0000000080052260                Ui_UsbdDetectEvent
                0x000000008005223c                Ui_SetKey
 .text          0x0000000080052268      0x8a4 ../../lib//libui.a(uiTouchCtrller.o)
                0x0000000080052320                TouchCtrllerInit
                0x0000000080052ad8                touchSprite_List
                0x0000000080052350                uiTouchMsgReceiver
                0x0000000080052ac0                touchSprite_Title
                0x00000000800523d8                touchSprite_Icon
                0x0000000080052268                TouchCtrllerCalProcess
                0x0000000080052b04                touchSprite_Dialog
                0x0000000080052ab8                touchSprite_Mask
                0x0000000080052ab0                touchSprite_DarkIcon
                0x000000008005291c                uiDispatchTouchSprite
                0x0000000080052650                touchSprite_CloseIcon
                0x0000000080052a7c                uiTouchCtrllerCallback
                0x0000000080052ad0                touchSprite_Text
                0x0000000080052aa8                touchSprite_LightIcon
                0x00000000800524ec                touchSprite_BackIcon
                0x00000000800526d8                touchSprite_Selector
                0x0000000080052ac8                touchSprite_Aside
                0x0000000080052aa0                touchSprite_Background
 .text          0x0000000080052b0c     0x2948 ../../../libIPLAY/lib//libdisplay.a(idu.o)
                0x00000000800550b0                Idu_Chg_422_Mode
                0x00000000800535dc                Idu_ClockInit
                0x0000000080053f58                Idu_DTD_VG_Off
                0x00000000800531b4                ImgDisplayON
                0x0000000080053ec8                Idu_InternalATCONInit
                0x000000008005303c                Idu_WinDmaInit
                0x00000000800553cc                MP650_FPGA_Change_DMA_Priority_IDU
                0x0000000080053ffc                Idu_DTDOff
                0x00000000800553ec                MP650_Set_DMA_Request_Limit
                0x0000000080055444                IDU_Show_Original_Color
                0x0000000080055214                Idu_Bypass2DMA
                0x0000000080052b0c                Idu_ChgWin
                0x0000000080053218                Idu_DisplayON
                0x00000000800547b8                DmaIduIsr
                0x0000000080053f38                Idu_DTD_VG_On
                0x000000008005338c                Idu_DisplayOff
                0x0000000080053edc                Idu_SetDACClk
                0x0000000080054024                Idu_RGB24ModeInit
                0x000000008005313c                Idu_ChkBusWidth
                0x00000000800550bc                Idu_GetIs444Mode
                0x0000000080053ed0                Idu_GetDtdRegSetting
                0x00000000800550a0                Idu_Chg_444_Mode
                0x0000000080053410                Idu_TableSearch
                0x0000000080054c7c                Idu_SetContrastBrightness
                0x0000000080053f78                Idu_DTDInit
                0x0000000080055378                Idu_SetCSC
                0x0000000080054420                IduInit
                0x0000000080053b84                Idu_InternelTCONInit
                0x00000000800550c8                Idu_DMA2Bypass
                0x0000000080055408                IDU_Show_BG_Color_Black
                0x0000000080054608                DisplayInit
                0x0000000080052f54                Idu_WaitBufferEnd
 .text          0x0000000080055454      0xeb4 ../../../libIPLAY/lib//libdisplay.a(osd.o)
                0x0000000080055a1c                Idu_OsdSetPalette
                0x0000000080055454                Idu_OSDWinInit
                0x0000000080055ecc                Idu_OsdPutChar_1X
                0x00000000800554a0                Idu_OsdDMAInit
                0x0000000080055ad8                Idu_OsdPutRectangle
                0x0000000080055a70                Idu_OsdOnOff
                0x0000000080055928                Idu_OsdPutStrWithSize
                0x0000000080055630                Idu_OsdDMAOn
                0x0000000080055c1c                Idu_OsdPutChar_4X
                0x00000000800559d0                Idu_GetOsdWin
                0x0000000080055bac                Idu_OSDInit
                0x0000000080055aa0                Idu_OsdErase
                0x00000000800561e0                Idu_OsdDrawBar
                0x000000008005597c                Idu_OSDPrint
                0x00000000800559f4                Idu_OsdSetDefaultPalette
 .text          0x0000000080056308      0x2e8 ../../../libIPLAY/lib//libdisplay.a(osd4.o)
                0x0000000080056360                Idu_OsdChangeBlending
                0x00000000800563c8                Idu_OsdPaintArea
                0x0000000080056308                Idu_OsdPaletteInit
                0x0000000080056564                Idu_OsdPaintVColorBar
 .text          0x00000000800565f0      0x51c ../../../libIPLAY/lib//libdisplay.a(fontdisp.o)
                0x0000000080056acc                IduFontGetBlankWidth
                0x000000008005689c                OsdFontGetFontAlignment
                0x0000000080056814                IduFontIsNewTabFont
                0x0000000080056878                IduFontGetFontAlignment
                0x00000000800568dc                IduFontGetMaxHeight
                0x0000000080056780                OsdFontGetBitPerPixel
                0x0000000080056900                OsdFontGetMaxHeight
                0x000000008005673c                GetOsdFontDataStartAddress
                0x000000008005674c                IduFontGetBitPerPixel
                0x00000000800566dc                SetCurrIduFontID
                0x0000000080056838                OsdFontIsNewTabFont
                0x000000008005672c                GetIduFontDataStartAddress
                0x0000000080056adc                OsdFontGetBlankWidth
                0x0000000080056704                SetCurrOsdFontID
                0x0000000080056a2c                IduFontGetCharBitmapAddr
                0x0000000080056600                GetCurrOsdFontID
                0x00000000800565f0                GetCurrIduFontID
                0x0000000080056a7c                IduFontGetCharWidth
                0x0000000080056a54                OsdFontGetCharBitmapAddr
                0x0000000080056aec                FontInit
 .text          0x0000000080056b0c     0x1728 ../../../libIPLAY/lib//libdisplay.a(imgWin.o)
                0x0000000080056f58                WinToWin
                0x00000000800577fc                PaintAllColorBar
                0x0000000080057c3c                PaintHColorBar
                0x00000000800572bc                Idu_PaintWin
                0x00000000800571a0                ImgPaintArea
                0x0000000080057860                PaintGrayScaleColorBar
                0x0000000080056e28                Idu_GetCurrWin
                0x0000000080057008                WinCopy
                0x0000000080057e5c                PaintMixColorBar
                0x00000000800575f8                PaintVColorBar
                0x0000000080056d0c                RGB2RGB888
                0x0000000080057438                Idu_PaintWinData
                0x000000008005736c                Idu_GetWinData
                0x0000000080056d8c                InitWins
                0x0000000080056e60                Idu_GetNextWin
                0x0000000080056b0c                RGB2YUV
                0x0000000080056f20                Idu_ResetWinClipRegion
                0x0000000080057270                ImgSetPoint
                0x0000000080056e98                Idu_SetWinClipRegion
                0x0000000080057504                Idu_PaintWinArea
                0x0000000080056d2c                RGB2RGB565
                0x0000000080056c0c                RGB2YVU
                0x0000000080056d50                ImgWinInit
 .text          0x0000000080058234      0x9c0 ../../../libIPLAY/lib//libdisplay.a(imgString.o)
                0x0000000080058a10                ImgPutChar
                0x0000000080058244                ChangeFontSize2Nonfix
                0x0000000080058234                ChangFontSize2Fix
                0x0000000080058a34                Idu_GetSystemFontColor
                0x0000000080058ad4                Idu_FontColorSet
                0x0000000080058250                ImgPutChar_GrayFont
                0x0000000080058ac8                Idu_SetFontYUV
                0x0000000080058a84                Idu_SetFontColor
                0x0000000080058a40                Idu_GetFontColor
                0x0000000080058b00                Idu_PrintStringWithSize
 .text          0x0000000080058bf4      0x3e0 ../../../libIPLAY/lib//libdisplay.a(Font.o)
                0x0000000080058e4c                Font_Draw_OSD
                0x0000000080058bf4                Str_Length
                0x0000000080058c7c                Font_Draw
 .text          0x0000000080058fd4     0x4d88 ../../../libIPLAY/lib//libdisplay.a(scaler_650.o)
                0x0000000080058fd4                Set_Bypass_Overlay_Param
                0x000000008005bab0                image_scale_mjpg_bypass
                0x000000008005d9ec                Auto_Chase_Scaling
                0x000000008005b880                image_scale_mpv2mem
                0x00000000800591e4                ipu_reset
                0x0000000080058fe4                Clear_Bypass_Overlay_Param
                0x000000008005c798                ipu_overlay_650_blend
                0x0000000080058ffc                MP650_FPGA_Change_DMA_Priority_IPU
                0x000000008005ced0                Bypass_Overlay
                0x000000008005d794                image_scale
                0x000000008005ce10                image_overlay
                0x000000008005b36c                image_scale_mpv_bypass
                0x000000008005dd44                Bypass_Show_WallPaper
                0x000000008005c510                image_scale_non_filter
                0x000000008005a868                ipu_overlay_bypass_scale_650
                0x0000000080059574                ScalerIsr
                0x000000008005dd2c                Bypass_Overlay_Show_Main_Win
                0x000000008005964c                SetScaleForZoom
                0x0000000080058ff0                GetScalerPara
 .text          0x000000008005dd5c      0x6c4 ../../../libIPLAY/lib//libdisplay.a(hal_ipu.o)
                0x000000008005e17c                Ipu_SetBlackWitheEffect
                0x000000008005de88                Ipu_Crayon
                0x000000008005e338                Ipu_SetSpecialFumc
                0x000000008005e070                Ipu_SetBrightness
                0x000000008005dfec                Ipu_SetEdgeFumc
                0x000000008005e0f8                Ipu_SetCbCrOffset
                0x000000008005e3a0                Ipu_SetYGammaTable
                0x000000008005dd5c                Ipu_SetHueSaturation
                0x000000008005e12c                Ipu_SetIpuGlobalEnable
                0x000000008005df50                Ipu_SetAutoEdgeFumc
                0x000000008005e098                Ipu_SetContrast
                0x000000008005de58                Ipu_Sketch
                0x000000008005e040                Ipu_SetBlur
                0x000000008005e2c4                Ipu_SetSEBIANEffect
                0x000000008005e200                Ipu_SetHighGainEffect
                0x000000008005e374                Ipu_SetYGammaEnable
                0x000000008005df00                Ipu_CSC1Set
                0x000000008005e250                Ipu_SetColorMixEffect
                0x000000008005deb8                Ipu_CSC0Set
 .text          0x000000008005e420      0x900 ../../../libIPLAY/lib//libsensor.a(sensor_manager.o)
                0x000000008005ea9c                Api_Clear_PCCAM_SwitchBuf_flag
                0x000000008005e984                API_Open_IPW1
                0x000000008005eb9c                API_SensorUsb_GetShareBuf_status
                0x000000008005ebbc                API_SensorUsb_SetEmptyFlag
                0x000000008005e6c0                API_SetSensorWindow
                0x000000008005e940                API_Close_Write_Into_EncBuf
                0x000000008005ea2c                API_Set_PCCAM_GetReadyBufCnt
                0x000000008005e8dc                Get_Display_flag
                0x000000008005e5d0                SetSensorInterfaceMode
                0x000000008005e570                SetSensorOverlayEnable
                0x000000008005e8ac                Set_Display_flag
                0x000000008005e9c8                API_Close_IPW1
                0x000000008005e658                API_Sensor_Initial
                0x000000008005ec74                API_SensorUsbGetShareBufInfo
                0x000000008005e420                API_Sensor_Stop
                0x000000008005eb28                API_SensorUsb_EnableShareBuf
                0x000000008005ebfc                API_SensorUsb_ClrEmptyFlag
                0x000000008005ec38                API_SensorUsb_GetEmptyFlag
                0x000000008005ecac                API_SensorUsbSetShareBufInfo
                0x000000008005eadc                API_Set_PCCAM_ReadyBuf_state
                0x000000008005ea58                Api_Get_PCCAM_SwitchBuf_flag
                0x000000008005ea0c                API_PCCAM_GetReadyBufCnt
                0x000000008005e5a0                SetImageSize
                0x000000008005e600                Drive_Sensor
                0x000000008005e8fc                API_Open_Write_Into_EncBuf
                0x000000008005e868                Sensor_Input_Enable
                0x000000008005eabc                API_Get_PCCAM_ReadyBuf_state
                0x000000008005ea78                Api_Set_PCCAM_SwitchBuf_flag
                0x000000008005eb64                API_SensorUsb_DisableShareBuf
                0x000000008005eb08                API_SensorUsbUsedBufNum
 .text          0x000000008005ed20     0x2770 ../../../libIPLAY/lib//libsensor.a(sensor_driver_NT99140.o)
                0x000000008005ee94                __sensor_nt99140_i2c_data_input
                0x000000008005ee18                __sensor_nt99140_i2c_data_output
                0x000000008005ed9c                __sensor_nt99140_i2c_data_low
                0x000000008005f080                __sensor_nt99140_i2c_clk_output
                0x000000008005f470                sensor_nt99140_GPIO_Init
                0x000000008005ed20                __sensor_nt99140_i2c_data_high
                0x000000008005ef18                __sensor_nt99140_i2c_read_data
                0x00000000800613ac                Drive_Sensor_NT99140
                0x0000000080060eac                SetBWmodeOnOff
                0x000000008005ef88                __sensor_nt99140_i2c_clk_high
                0x000000008005f004                __sensor_nt99140_i2c_clk_low
                0x000000008005f0fc                __sensor_nt99140_i2c_clk_input
 .text          0x0000000080061490     0x1b50 ../../../libIPLAY/lib//libsensor.a(sensor_NT99140.o)
                0x00000000800626c0                Local_Sensor_GPIO_Reset
                0x0000000080062bc4                Sensor_Setup
                0x0000000080062c08                Global_Sensor_Initial_NT99140
                0x00000000800616b8                Sensor_CurChannel_Get
                0x00000000800629c4                Init_Sensor_Record_Win
                0x0000000080061650                Sensor_DisplayMode_Set
                0x0000000080061688                Sensor_CacheWin_Set
                0x0000000080061490                Sensor_DisplayWindow_Set
                0x0000000080062b3c                Sensor_Start
                0x00000000800616d8                Sensor_ChangeIO_Init
                0x0000000080061708                Sensor_Channel_Set
 .text          0x0000000080062fe0     0x4b70 ../../../libIPLAY/lib//libimage.a(jpeg_hal.o)
                0x0000000080063068                CduDecodeEnable
                0x00000000800631a0                Jpg_Marker_SOF0
                0x0000000080063054                CduCheckEnabled
                0x0000000080066cd0                Jpg_Cdu_Decode_650
                0x0000000080065550                Jpg_GetReadTargetHeight
                0x00000000800654d8                Jpg_GetTargetWidth
                0x00000000800647c8                Jpg_Cdu_Wait_Time
                0x000000008006310c                JpegDelay
                0x0000000080064358                Jpg_CheckImageSize
                0x00000000800633a4                Jpg_Marker_DHT
                0x0000000080063798                Jpg_Parse_Marker
                0x00000000800668cc                Jpg_Cdu_Decode_One
                0x0000000080065020                Jpg_Decoder_CduDecode
                0x00000000800640ec                GetRatioOver
                0x00000000800668bc                SetJpegDecoder422
                0x00000000800645ec                Jpg_SetRotateDecodedSize
                0x000000008006361c                Jpg_Marker_DQT
                0x00000000800654a0                Jpg_CloseJpegFile
                0x00000000800655e4                Jpg_Cdu_Decode_DChase
                0x0000000080066664                WaitBuffEmpty
                0x0000000080063e2c                Jpg_CheckQtTable
                0x0000000080065420                Jpg_OpenJpegBuffer
                0x0000000080063020                Jpg_DC_Controller_Free
                0x000000008006680c                Adjust_RotateMCU
                0x00000000800665d8                Reset_CDU_ISR_Count
                0x0000000080065564                Img_Jpeg2ImgBuf
                0x0000000080063c3c                Jpg_InitTables
                0x0000000080063ecc                Jpg_SetHummanTable
                0x0000000080063a5c                Jpg_Thumb_Parse_Marker
                0x0000000080065500                Jpg_GetImageWidth
                0x0000000080064720                Jpg_Cdu_Wait
                0x00000000800644f8                Jpg_SetDecodedSize
                0x00000000800654ec                Jpg_GetTargetHeight
                0x00000000800630cc                CduDisable
                0x0000000080066624                InsertDummyByte
                0x0000000080065514                Jpg_GetImageHeight
                0x00000000800646e0                Jpg_CheckComplete
                0x0000000080062fe0                ImageGetDC_Controller
                0x00000000800668a8                SetJpegDecoder444
                0x000000008006419c                Jpg_GetResizeRatio
                0x0000000080064878                Jpg_Cdu_Decode_Chase
                0x0000000080065528                Jpg_GetImageFrameWidth
                0x000000008006679c                Choose_Buff_Size
                0x00000000800646a4                Jpg_PollEvent
                0x000000008006553c                Jpg_GetRealTargetWidth
                0x0000000080067a14                CduIsr
                0x0000000080062fec                Jpg_DC_Controller_init
 .text          0x0000000080067b50     0x1240 ../../../libIPLAY/lib//libimage.a(IMG_jpeg.o)
                0x0000000080068a4c                Jpg_Decoder_Init
                0x0000000080068768                Jpg_Decoder_DecodeThumb
                0x0000000080068b4c                Jpg_Decoder_ImageFile_Init
                0x0000000080068ce0                LibjpegCallback_Check
                0x00000000800688bc                Jpg_Decoder_DecodeImage
 .text          0x0000000080068d90      0x4d4 ../../../libIPLAY/lib//libmpapi.a(api_main.o)
                0x00000000800690f8                Api_AudioPause
                0x00000000800690d8                Api_AudioForward
                0x0000000080068f34                Api_VideoRecordingResume
                0x00000000800691e0                Api_MovieStatusGet
                0x000000008006909c                Api_MovieVideoFullScreen
                0x000000008006917c                Api_Audio_getID3_pic
                0x000000008006918c                AiuDmaRegCallBackFunc
                0x0000000080069108                Api_MoviePause
                0x00000000800690c0                Api_MovieForward
                0x0000000080068d90                Api_VideoRecording
                0x0000000080069204                Api_AmrRecordDisable
                0x000000008006921c                API_SetVideoSpeed
                0x0000000080069154                Api_MovieChangeToFullScreenMode
                0x0000000080068fac                Api_VideoRecordingPreviewStart
                0x00000000800690f0                Api_AudioHWDisable
                0x0000000080069128                Api_EnterMoviePlayer
                0x0000000080069120                Api_ExitMoviePlayer
                0x00000000800690d0                Api_AudioBackward
                0x0000000080069144                Api_MovieGetMediaInfo
                0x000000008006915c                Api_AlarmSoundPlayer
                0x0000000080069134                Api_EnterMoviePreview
                0x00000000800691fc                Api_AmrRecordEnable
                0x0000000080069118                Api_MovieStop
                0x00000000800690c8                Api_MovieBackward
                0x00000000800690e0                Api_GetEQInfo
                0x0000000080069110                Api_MovieResume
                0x0000000080069174                Api_audio_channel_select
                0x0000000080069100                Api_MoviePlay
                0x000000008006916c                Api_ChangeDisplayRatio
                0x0000000080068e44                Api_StopVideoRecording
                0x00000000800690e8                Api_AudioHWEnable
                0x0000000080069164                Api_KeyToneSoundPlayer
                0x000000008006920c                Api_Wav_Sound_play
                0x0000000080069214                API_SetAudioTimeStamp
                0x0000000080069024                Api_VideoRecordingPreviewStop
                0x00000000800691f4                Api_SetRecordVolume
                0x000000008006913c                Api_VideoDrawThumb
                0x00000000800691c0                AiuDmaClearCallBackFunc
                0x0000000080069184                MagicPixel_audio_channel_process
                0x000000008006914c                Api_MovieChangeToThumbMode
                0x0000000080068ebc                Api_VideoRecordingPause
 .text          0x0000000080069264      0x6f0 ../../../libIPLAY/lib//libmpapi.a(mpImageResizeApi.o)
                0x0000000080069264                FitToOriginRatio
                0x000000008006983c                Ipu_Overlay
                0x0000000080069748                Ipu_ImageScaling
                0x0000000080069554                Extract_Ipu_ImageScaling
                0x00000000800697e4                Ipu_Zoom
                0x0000000080069934                Ipu_Video_Bypass_Show_Main_Win
                0x00000000800693b4                ImageDraw_FitToOrigin
                0x0000000080069894                Ipu_Video_Bypass_Scaling
 .text          0x0000000080069954     0x123c ../../../libIPLAY/lib//libmpapi.a(mpImageApi.o)
                0x000000008006ab18                mpPaintWin
                0x000000008006a7e4                mpSE_Crayon
                0x000000008006a2a8                mpDraw1BitBitmap
                0x000000008006a72c                mpSE_Negative
                0x000000008006a1dc                mpPaintWinArea
                0x000000008006ab38                mpClearWin
                0x0000000080069a7c                mpGetIPUEffectValue
                0x000000008006a66c                mpSE_Gray
                0x0000000080069d18                mpCopyWinArea
                0x0000000080069c70                mpSE_Solarzation
                0x000000008006a6c4                mpSE_Sepia
                0x000000008006a564                mpResetIPUEffectValue
                0x000000008006a83c                mpCopyWin
                0x000000008006aad8                mpWinInit
                0x0000000080069bd0                mpSE_RGB_stretch
                0x000000008006a940                mpCopyEqualWin
                0x0000000080069e8c                mpCheckBufferContent
                0x000000008006a5b4                mpSE_Off
                0x000000008006ab70                WinInit4VideoPlay
                0x000000008006a784                mpSE_Edge
                0x000000008006ab58                GetScreenOffset
                0x000000008006a604                mpSE_Sketch
                0x000000008006a458                DisplayWinPosition
                0x000000008006a07c                mpPaintWinAreaBlending
                0x0000000080069954                mpSetIPUEffectValue
                0x0000000080069f14                mpPaintWinAreaAntiBlending
                0x000000008006aa44                mpCopyWinAreaSameSize
 .text          0x000000008006ab90      0x65c ../../../libIPLAY/lib//libmpapi.a(mpTrace.o)
                0x000000008006af00                PutUartChar
                0x000000008006af28                PutUartCharDrop
                0x000000008006b0c8                UartDMARead
                0x000000008006acf4                mpDebugPrintValue
                0x000000008006af7c                mpPrintTraceTime
                0x000000008006afc4                GetUartChar
                0x000000008006b1c4                CheckUartStatus
                0x000000008006b054                UartRead
                0x000000008006b1a4                DisUartInt
                0x000000008006ac98                mpDebugPrintChar
                0x000000008006af50                UartOutText
                0x000000008006ab90                mpDebugPrintN
                0x000000008006b184                EnaUartInt
                0x000000008006b160                UartIntDisable
                0x000000008006ae30                mpPrintMessage
                0x000000008006b098                UartWrite
                0x000000008006b13c                UartIntEnable
                0x000000008006af84                Uart_Init
                0x000000008006ac04                mpDebugPrint
                0x000000008006b00c                WaitUartStatus
                0x000000008006b034                WaitUartTxComplete
                0x000000008006af74                mpTraceTimeStart
                0x000000008006add4                mpDebugPrintCharDrop
                0x000000008006afe4                UartOutValue
                0x000000008006b10c                UartDMAWrite
 .text          0x000000008006b1ec      0x504 ../../../libIPLAY/lib//libmpapi.a(mpUtil.o)
                0x000000008006b6a8                SetBitByOffset
                0x000000008006b254                TimerDelay
                0x000000008006b1ec                WaitMs
                0x000000008006b5fc                IODelay
                0x000000008006b340                MpMemCopy
                0x000000008006b43c                MpMemSet
                0x000000008006b680                GetBitByOffset
                0x000000008006b588                MpMemSetDWORD
 .text          0x000000008006b6f0     0x1080 ../../../libIPLAY/lib//libmpapi.a(mpImageFileApi.o)
                0x000000008006c738                JpegEventInit
                0x000000008006b998                ImageFile_Open
                0x000000008006c448                GetCurImgOutputType
                0x000000008006c4a8                ImageFile_GetImageHeight
                0x000000008006b7c0                ImageFile_DecodeImage
                0x000000008006c4e0                ImageFile_GetTargetHeight
                0x000000008006c254                Check_Thumb_exist
                0x000000008006c48c                ImageFile_GetImageWidth
                0x000000008006ba3c                ImageFile_CheckSize
                0x000000008006b928                ImageFile_Close
                0x000000008006c5f8                ImageReleaseSourceBuffer
                0x000000008006c6f8                ImageResetAllBuffer
                0x000000008006c4fc                ImageFile_GetTargetBuffer
                0x000000008006c454                ImageFile_GetThumbWidth
                0x000000008006c62c                ImageReleaseTargetBuffer
                0x000000008006bb3c                ImageFile_DecodeFile
                0x000000008006b838                ImageFile_Decoder_Init
                0x000000008006c720                ImageGetTargetSize
                0x000000008006c560                ImageFile_DecodeFromBuffer
                0x000000008006b760                ImageFile_GetImageSize
                0x000000008006c660                ImageReleaseAllBuffer
                0x000000008006c518                ImageFile_GetCurImageFile
                0x000000008006c204                ImageAllocTargetBuffer
                0x000000008006c714                ImageGetSourceBuffer
                0x000000008006c5a8                ImageFile_Encode_Img2Jpeg_WithQT
                0x000000008006c524                ImageFile_DecodeThumb
                0x000000008006c708                ImageGetTargetBuffer
                0x000000008006c72c                ImageGetSourceSize
                0x000000008006c190                ImageAllocSourceBuffer
                0x000000008006b6f0                ImageFile_GetImageFormat
                0x000000008006c470                ImageFile_GetThumbHeight
                0x000000008006c4c4                ImageFile_GetTargetWidth
                0x000000008006c588                ImageFile_Encode_Img2Jpeg
 .text          0x000000008006c770     0x1280 ../../../libIPLAY/lib//libmpapi.a(mpStreamApi.o)
                0x000000008006ca54                mpxStreamSeek
                0x000000008006d440                mpxStreamSkip
                0x000000008006d274                mpxStreamReadDWord_le
                0x000000008006caec                mpxStreamFillCache
                0x000000008006c908                mpxStreamOpenBuffer
                0x000000008006d424                mpxStreamGetSize
                0x000000008006c770                swap_buffer_endian
                0x000000008006d1e4                mpxStreamReadWord_le
                0x000000008006cc6c                mpxStreamRead
                0x000000008006cdbc                mpxStreamSearchString
                0x000000008006c808                mpxStreamOpen
                0x000000008006c9c8                mpxStreamClose
                0x000000008006d430                mpxStreamTell
                0x000000008006ceec                mpxStreamSearchMarker
                0x000000008006cb68                mpxStreamDirectRead
                0x000000008006d404                mpxStreamReset
                0x000000008006d13c                mpxStreamReadDWord
                0x000000008006d0bc                mpxStreamReadWord
                0x000000008006cf8c                mpxStreamReadAndSkipLength
                0x000000008006d04c                mpxStreamGetc
                0x000000008006d32c                mpxStreamPrintOut
 .text          0x000000008006d9f0      0x340 ../../../libIPLAY/lib//libjpeg.a(jpeg_decoder.o)
                0x000000008006da08                Libjpeg_DecodeImage
                0x000000008006dd24                Libjpeg_Abort
 .text          0x000000008006dd30      0x664 ../../../libIPLAY/lib//libjpeg.a(jdapistd.o)
                0x000000008006df48                jpeg_read_scanlines
                0x000000008006ddf0                jpeg_search_next_scan
                0x000000008006dd30                jpeg_start_decompress
                0x000000008006e054                jpeg_read_raw_data
                0x000000008006e268                jpeg_finish_output
                0x000000008006e1ac                jpeg_start_output
 .text          0x000000008006e394      0xae0 ../../../libIPLAY/lib//libjpeg.a(jdapimin.o)
                0x000000008006eb3c                jpeg_restore_scan_info
                0x000000008006e4f4                jpeg_abort_decompress
                0x000000008006e4d4                jpeg_destroy_decompress
                0x000000008006e394                jpeg_CreateDecompress
                0x000000008006ecac                jpeg_has_multiple_scans
                0x000000008006e84c                jpeg_consume_input
                0x000000008006ec38                jpeg_input_complete
                0x000000008006e768                jpeg_read_header
                0x000000008006ed20                jpeg_finish_decompress
                0x000000008006e980                jpeg_create_scan_info
                0x000000008006eb18                jpeg_save_scan_info
 .text          0x000000008006ee74      0x2d4 ../../../libIPLAY/lib//libjpeg.a(jdatasrc.o)
                0x000000008006f010                jpeg_stream_src
                0x000000008006f13c                jpeg_switch_stream_src
 .text          0x000000008006f148      0xb6c ../../../libIPLAY/lib//libjpeg.a(jdmaster.o)
                0x000000008006fc58                jinit_master_decompress
                0x000000008006f150                jpeg_calc_output_dimensions
                0x000000008006fb88                jpeg_new_colormap
 .text          0x000000008006fcb4     0x14d4 ../../../libIPLAY/lib//libjpeg.a(jmemmgr.o)
                0x000000008007103c                jinit_memory_mgr
 .text          0x0000000080071188     0x2994 ../../../libIPLAY/lib//libjpeg.a(jdmarker.o)
                0x0000000080073aa4                jpeg_set_marker_processor
                0x0000000080073754                jpeg_resync_to_restart
                0x00000000800738fc                jinit_marker_reader
                0x00000000800739a0                jpeg_save_markers
 .text          0x0000000080073b1c      0xb38 ../../../libIPLAY/lib//libjpeg.a(jdinput.o)
                0x00000000800745b8                jinit_input_controller
 .text          0x0000000080074654      0x12c ../../../libIPLAY/lib//libjpeg.a(jcomapi.o)
                0x00000000800746d4                jpeg_destroy
                0x0000000080074750                jpeg_alloc_huff_table
                0x0000000080074654                jpeg_abort
                0x0000000080074720                jpeg_alloc_quant_table
 .text          0x0000000080074780      0xfc0 ../../../libIPLAY/lib//libjpeg.a(jdphuff.o)
                0x0000000080074c84                process_restart
                0x0000000080075670                jinit_phuff_decoder
 .text          0x0000000080075740      0xe1c ../../../libIPLAY/lib//libjpeg.a(jdcoefct.o)
                0x0000000080076378                jinit_d_coef_controller
 .text          0x000000008007655c      0xfa8 ../../../libIPLAY/lib//libjpeg.a(jdhuff.o)
                0x0000000080076734                jpeg_make_d_derived_tbl
                0x0000000080076d00                jpeg_huff_decode
                0x0000000080076b30                jpeg_fill_bit_buffer
                0x000000008007749c                jinit_huff_decoder
 .text          0x0000000080077504      0x108 ../../../libIPLAY/lib//libjpeg.a(jutils.o)
                0x0000000080077528                jround_up
                0x0000000080077504                jdiv_round_up
                0x000000008007754c                jcopy_sample_rows
                0x00000000800775e8                jzero_far
                0x00000000800775bc                jcopy_block_row
 .text          0x000000008007760c      0x234 ../../../libIPLAY/lib//libjpeg.a(jdpostct.o)
                0x0000000080077774                jinit_d_post_controller
 .text          0x0000000080077840      0x2e8 ../../../libIPLAY/lib//libjpeg.a(jddctmgr.o)
                0x0000000080077a68                jinit_inverse_dct
 .text          0x0000000080077b28      0x9f4 ../../../libIPLAY/lib//libjpeg.a(jdmainct.o)
                0x000000008007837c                jinit_d_main_controller
 .text          0x000000008007851c      0xbec ../../../libIPLAY/lib//libjpeg.a(jdcolor.o)
                0x0000000080078ee0                jinit_color_deconverter
 .text          0x0000000080079108      0x9a8 ../../../libIPLAY/lib//libjpeg.a(jdsample.o)
                0x00000000800797a8                jinit_upsampler
 .text          0x0000000080079ab0      0x174 ../../../libIPLAY/lib//libjpeg.a(jmemnobs.o)
                0x0000000080079af4                jpeg_get_small
                0x0000000080079b88                jpeg_mem_init
                0x0000000080079b58                jpeg_open_backing_store
                0x0000000080079c1c                jpeg_mem_term
                0x0000000080079b44                jpeg_mem_available
                0x0000000080079b1c                jpeg_get_large
                0x0000000080079b3c                jpeg_free_large
                0x0000000080079b14                jpeg_free_small
                0x0000000080079be8                jpeg_mem_free
 .text          0x0000000080079c24      0x9c0 ../../../libIPLAY/lib//libjpeg.a(jidctred.o)
                0x000000008007a5a0                jpeg_idct_1x1
                0x000000008007a234                jpeg_idct_2x2
                0x0000000080079c24                jpeg_idct_4x4
 .text          0x000000008007a5e4      0x538 ../../../libIPLAY/lib//libjpeg.a(jidctfst.o)
                0x000000008007a5e4                jpeg_idct_ifast
 .text          0x000000008007ab1c       0xa4 ../../../libIPLAY/lib//libjpeg.a(jerror.o)
                0x000000008007ab50                jpeg_std_error
 .text          0x000000008007abc0      0xc48 ../../../libIPLAY/lib//libjpeg.a(asm_jdphuff.o)
                0x000000008007abc0                decode_mcu_DC_first
                0x000000008007b170                decode_mcu_DC_refine
                0x000000008007b2c8                decode_mcu_AC_refine
                0x000000008007ae84                decode_mcu_AC_first
 .text          0x000000008007b808       0xfc ../../../libIPLAY/lib//libjpeg.a(asm_jdcolor.o)
                0x000000008007b808                __rgb_ycc422_convert
 .text          0x000000008007b904      0x938 ../../../libIPLAY/lib//libavipacker.a(AVI_Stream.o)
                0x000000008007bc1c                aviStreamindex
                0x000000008007bf68                aviStreamSetPivot
                0x000000008007b960                aviStreamStartup
                0x000000008007ba9c                aviStreamGetNullSpace
                0x000000008007ba4c                aviStreamUninit
                0x000000008007bd10                aviStreamTask
                0x000000008007b904                aviStreamTaskCreate
                0x000000008007b9ac                aviStreamInit
                0x000000008007bacc                aviStreamCache
                0x000000008007bcb4                aviStreamForceFlush
 .text          0x000000008007c23c      0xf5c ../../../libIPLAY/lib//libavipacker.a(AVI_packerAPI.o)
                0x000000008007ccc4                AVIEN_closefile
                0x000000008007ca2c                AVIEN_fillPcm
                0x000000008007c23c                TimerToGetRecordFPS
                0x000000008007d084                ExceptionHandle
                0x000000008007c670                AVIEN_fillJpeg
                0x000000008007cc94                getPcmInfo
                0x000000008007c2e4                AVIEN_createfile
                0x000000008007d178                unlock_semaph
                0x000000008007d158                lock_semaph
 .text          0x000000008007d198      0x2cc ../../../libIPLAY/lib//libavipacker.a(AVI_Packer.o)
                0x000000008007d23c                build_LIST_strl_audio
                0x000000008007d3e0                MagicPixel_AVIEN_malloc_callback
                0x000000008007d198                build_LIST_strl_video
                0x000000008007d3c0                MagicPixel_AVIEN_write_callback
                0x000000008007d404                MagicPixel_AVIEN_free_callback
                0x000000008007d2f8                build_AVI_Header
                0x000000008007d394                MagicPixel_AVIEN_OutSeek_callback
                0x000000008007d374                MagicPixel_AVIEN_INDEX
                0x000000008007d2b8                buildJUNKsection
                0x000000008007d444                MagicPixel_AVIEN_fileClose_callback
                0x000000008007d424                MagicPixel_AVIEN_fileOpen_callback
 .text          0x000000008007d464      0x484 ../../../libIPLAY/lib//libavipacker.a(AVI_Utility.o)
                0x000000008007d464                dwEndianConvert
                0x000000008007d648                video_INDEXENTRY_init
                0x000000008007d844                chg_wavformatexEndian
                0x000000008007d524                wFourccHeader_index
                0x000000008007d72c                fillHeader_Video_strf
                0x000000008007d598                fillAviMainHeader
                0x000000008007d49c                wEndianConvert
                0x000000008007d4bc                wFourccHeader
                0x000000008007d79c                strl_audio_setting
                0x000000008007d690                fillHeader_Video_strh
                0x000000008007d8b8                wLISTHeader
 .text          0x000000008007d8e8     0x14e8 ../../../libIPLAY/lib//libutil.a(util_CharString.o)
                0x000000008007e220                HexString
                0x000000008007ed78                IsAlpha08
                0x000000008007e468                SkipLeadingZero
                0x000000008007ed68                IsDigit16
                0x000000008007e4e0                TrimOffString08TailSpaces
                0x000000008007dad8                StringNCompare08
                0x000000008007e55c                TrimOffString16TailSpaces
                0x000000008007d8e8                CharUpperCase08
                0x000000008007db94                StringCompare16
                0x000000008007e83c                StringCopy16
                0x000000008007e7bc                StringNCopy16
                0x000000008007df30                StringNCompare08_CaseInsensitive
                0x000000008007de40                StringCompare08_CaseInsensitive
                0x000000008007ec94                String16_strstr
                0x000000008007e9a0                StringNCopy0816
                0x000000008007e3b4                DecString
                0x000000008007dc44                StringNCompare16
                0x000000008007e120                StringNCompare16_CaseInsensitive
                0x000000008007e74c                StringCopy08
                0x000000008007ea1c                StringCopy0816
                0x000000008007d948                UpperCase08
                0x000000008007e8ac                StringNCopy1608
                0x000000008007e92c                StringCopy1608
                0x000000008007e2b0                Bin2Bcd
                0x000000008007e5e0                DigitStringSeparate
                0x000000008007dd60                UpperCase16
                0x000000008007eb58                String16rchr
                0x000000008007eda4                IsAlpha16
                0x000000008007e030                StringCompare16_CaseInsensitive
                0x000000008007eaf4                StringLength16
                0x000000008007da28                StringCompare08
                0x000000008007e6cc                StringNCopy08
                0x000000008007ea90                StringLength08
                0x000000008007ebd0                String08_strstr
                0x000000008007ed58                IsDigit08
                0x000000008007ddd0                ArrayCompare16
                0x000000008007dd00                CharUpperCase16
                0x000000008007d9b8                ArrayCompare08
 .text          0x000000008007edd0       0xfc ../../../libIPLAY/lib//libutil.a(util_Utf8ToUni.o)
                0x000000008007ee54                mpx_UtilUtf8ToUnicodeU16
                0x000000008007edd0                mpx_Utf8ToUnicode
 .text          0x000000008007eecc       0x60 ../../../libIPLAY/lib//libutil.a(util_U16ToU08.o)
                0x000000008007eecc                mpx_UtilU16ToU08
 .text          0x000000008007ef2c       0x48 ../../../libIPLAY/lib//libutil.a(util_Asc2Uni.o)
                0x000000008007ef2c                mpx_UtilAsc2Uni
 .text          0x000000008007ef74      0xbd8 ../../../libIPLAY/lib//libRecord.a(record_task.o)
                0x000000008007f130                recopcontrolInit
                0x000000008007fa90                Showinstruction
                0x000000008007f564                record_panel_task
                0x000000008007efa0                RecordArgument
                0x000000008007f024                recordTaskInit
                0x000000008007f5b0                SetResolution
                0x000000008007ef80                SetRecordState
                0x000000008007f1b0                record_op_control
                0x000000008007ef74                RecordTaskStattusGet
                0x000000008007ef8c                bRecordMode
                0x000000008007f9e0                ShowState
                0x000000008007f520                RecordVideoTask
                0x000000008007f1e0                RecordTask_State
                0x000000008007eff0                RecordArgumentGet
 .text          0x000000008007fb4c      0x3d4 ../../../libIPLAY/lib//libtouchctrl.a(tcapi.o)
                0x000000008007fe20                mpx_TcFunctionsStop
                0x000000008007fea0                mpx_TcFunctionsResume
                0x000000008007fce4                mpx_TcFunctionsTest
                0x000000008007fc20                mpx_TcFunctionsPosGet
                0x000000008007fb4c                mpx_TcFunctionsStartup
                0x000000008007fee0                mpx_TcFunctionsChgSensitivity
                0x000000008007fe60                mpx_TcFunctionsPause
                0x000000008007fc60                mpx_TcFunctionsAdjust
                0x000000008007fbb8                mpx_TcFunctionsPosReset
                0x000000008007fdf0                mpx_TcFunctionsPollSet
                0x000000008007fd68                mpx_TcFunctionsAdjustWait
 .text          0x000000008007ff20      0x368 ../../../libIPLAY/lib//libtouchctrl.a(touchCtrller.o)
                0x000000008007ff20                TouchCtrllerTask
                0x0000000080080000                TcFuncConstruct
                0x00000000800800ec                TcGetMsgId
 .text          0x0000000080080288      0xd08 ../../../libIPLAY/lib//libtouchctrl.a(tc_gt911.o)
                0x000000008008066c                TouchPanelInit
                0x0000000080080648                TouchIntEnable
                0x0000000080080530                ResetTouchPanel
                0x0000000080080288                I2CM_GT911_RdReg
                0x0000000080080494                gtp_read_version
                0x00000000800805ac                TcDriverInit
                0x000000008008063c                TimerToKeyRelease
                0x00000000800805fc                I2CM_Touch_RdReg
                0x00000000800802f4                I2CM_GT911_RdRegisters
                0x000000008008036c                GT911_I2C_ReadTouchData
                0x000000008008061c                I2CM_GT911_WtRegisters
 .text          0x0000000080080f90      0x574 ../../../libIPLAY/lib//libxpg.a(xpg.o)
                0x00000000800814e4                xpgReleaseThumbBuffer
                0x0000000080081474                xpgReleaseAllRoleBuffer
                0x0000000080081408                xpgForcedSearchAndGotoPage
                0x0000000080081224                xpgOpen
                0x0000000080081140                xpgPreloadAndOpen
                0x00000000800814ec                xpgSupportAnimationCheck
                0x00000000800812a4                xpgGotoPage
                0x0000000080080f90                xpgLoadFromSPINOR
                0x0000000080081378                xpgSearchAndGotoPage
                0x00000000800814dc                xpgInitThumbBuffer
                0x000000008008132c                xpgGotoEnterPage
                0x0000000080081058                xpgLoadFromFlash
 .text          0x0000000080081504      0x44c ../../../libIPLAY/lib//libxpg.a(xpgMovie.o)
                0x00000000800816dc                xpgMovieLoadGlobalCommand
                0x00000000800815bc                xpgMovieLoadPage
                0x0000000080081758                xpgMovieLoadPageCommand
                0x00000000800817ec                xpgSpriteFindType
                0x00000000800818c4                xpgMovieInitObjRole
                0x0000000080081504                xpgMovieInit
                0x0000000080081844                xpgMovieSearchPage
 .text          0x0000000080081950      0x3c4 ../../../libIPLAY/lib//libxpg.a(xpgUtil.o)
                0x0000000080081950                xpgInitMemory
                0x0000000080081d00                xpgFileGetSize
                0x0000000080081a94                xpgFileRead
                0x0000000080081d0c                xpgHashReverse
                0x0000000080081c8c                xpgResetBufSize
                0x0000000080081a50                xpgFileOpen
                0x000000008008199c                xpgMalloc
                0x0000000080081c80                xpgMemorySetOffsetSave
                0x0000000080081ca4                xpgCalloc
                0x0000000080081c5c                xpgMemorySetOffset
                0x0000000080081ce0                xpgFileTell
                0x0000000080081cd4                xpgFreeAll
                0x0000000080081c94                xpgMemoryGetFreeSpace
                0x0000000080081c74                xpgMemoryGetOffsetSave
                0x0000000080081b84                xpgFileGetc
                0x0000000080081bac                xpgHash
                0x0000000080081c50                xpgMemoryGetOffset
                0x0000000080081b04                xpgFileSeek
                0x0000000080081cec                xpgFileClose
                0x0000000080081c68                xpgGetXpgMemorySize
                0x0000000080081ccc                xpgFree
 .text          0x0000000080081d14      0xa90 ../../../libIPLAY/lib//libxpg.a(xpgSprite.o)
                0x00000000800826ac                xpgSpriteSetTouchArea
                0x0000000080082590                xpgSpriteCopy
                0x0000000080082704                xpgSpriteSetFrameCount
                0x0000000080081dfc                xpgSpriteMoveTo
                0x00000000800826e0                xpgSpriteDisableTouch
                0x0000000080081e90                xpgSpritePosFrameInbetween
                0x0000000080082774                xpgSpriteEnableTouch
                0x0000000080081db0                xpgSpriteSetRole
                0x0000000080081d50                xpgSpriteSetKeyFrameCount
                0x0000000080081e3c                xpgSpriteMove
                0x0000000080082370                xpgSpriteFramesFree
                0x0000000080082718                xpgSpriteInside
                0x00000000800821f0                xpgSpriteActionInbetween
                0x0000000080082040                xpgSpriteSizeFrameInbetween
                0x0000000080081d14                xpgSpriteGetFrame
                0x0000000080082394                xpgSpriteCopyFrames
 .text          0x00000000800827a4      0x8f0 ../../../libIPLAY/lib//libxpg.a(xpgRole.o)
                0x00000000800827ec                xpgRolePreload
                0x0000000080082a40                xpgRoleDrawTransperant
                0x00000000800828e4                xpgRoleDraw
                0x0000000080083070                xpgRoleInit
                0x00000000800827a4                xpgRoleRelease
                0x0000000080082cf8                xpgRoleDrawMask
 .text          0x0000000080083094     0x14b4 ../../../libIPLAY/lib//libxpg.a(xpgReader.o)
                0x00000000800839d0                xpgReadSpriteFrame
                0x00000000800842a0                xpgReadMovie
                0x00000000800838d8                xpgReadPageSpriteData
                0x0000000080084068                xpgReadPage
                0x0000000080083ea0                xpgReadPageCommand
                0x0000000080083dd8                xpgReadPageHeader
                0x0000000080083094                xpgReadMovieHeader
                0x0000000080084434                xpgGetStartpage
                0x0000000080083bb4                xpgReadSpriteText
                0x00000000800836e0                xpgReadRoleMask
                0x00000000800843cc                xpgLoadMovie
                0x0000000080083818                xpgReadRoleData
                0x0000000080083564                xpgReadRoleHeader
                0x0000000080083c58                xpgReadSpriteExtraData
 .text          0x0000000080084548      0xbfc ../../../libIPLAY/lib//libxpg.a(xpgDraw.o)
                0x0000000080084658                xpgUpdateStageClip
                0x0000000080085138                getdwAllocSize
                0x00000000800845e8                xpgUpdateStageClipBySprite
                0x0000000080084c48                xpgOsdDrawIndexColorBitmap
                0x0000000080084548                xpgInitCanvas
                0x0000000080084edc                xpgDirectDrawRoleOnWin
                0x0000000080084a98                xpgDraw1BitBitmap
                0x00000000800845b0                xpgUpdateCanvas
                0x0000000080084a18                xpgAllocDecodeBuffer
                0x0000000080084d8c                ImgBufRotate
                0x00000000800848c4                xpgUpdateStage
 .text          0x0000000080085144      0x184 ../../../libIPLAY/lib//libxpg.a(xpgUi.o)
                0x0000000080085144                xpgProcessEvent
                0x00000000800852b0                xpgUiActionFunctionRegister
                0x00000000800852bc                xpgUiDrawKeyIconFunctionRegister
 .text          0x00000000800852c8       0x84 /cygdrive/e/mips/bin/../lib/gcc-lib/lexra-mpx-elf/3.2.1/../../../../lexra-mpx-elf/lib/soft-float/libc.a(memcmp.o)
                0x00000000800852c8                memcmp
 .text          0x000000008008534c       0xec /cygdrive/e/mips/bin/../lib/gcc-lib/lexra-mpx-elf/3.2.1/../../../../lexra-mpx-elf/lib/soft-float/libc.a(memcpy.o)
                0x000000008008534c                memcpy
 .text          0x0000000080085438       0xb4 /cygdrive/e/mips/bin/../lib/gcc-lib/lexra-mpx-elf/3.2.1/../../../../lexra-mpx-elf/lib/soft-float/libc.a(memset.o)
                0x0000000080085438                memset
 .text          0x00000000800854ec       0x80 /cygdrive/e/mips/bin/../lib/gcc-lib/lexra-mpx-elf/3.2.1/../../../../lexra-mpx-elf/lib/soft-float/libc.a(setjmp.o)
                0x0000000080085524                longjmp
                0x00000000800854ec                setjmp
 .text          0x000000008008556c       0xc4 /cygdrive/e/mips/bin/../lib/gcc-lib/lexra-mpx-elf/3.2.1/../../../../lexra-mpx-elf/lib/soft-float/libc.a(sprintf.o)
                0x000000008008556c                _sprintf_r
                0x00000000800855cc                sprintf
 .text          0x0000000080085630       0xb8 /cygdrive/e/mips/bin/../lib/gcc-lib/lexra-mpx-elf/3.2.1/../../../../lexra-mpx-elf/lib/soft-float/libc.a(strcat.o)
                0x0000000080085630                strcat
 .text          0x00000000800856e8      0x110 /cygdrive/e/mips/bin/../lib/gcc-lib/lexra-mpx-elf/3.2.1/../../../../lexra-mpx-elf/lib/soft-float/libc.a(strchr.o)
                0x00000000800856e8                strchr
 .text          0x00000000800857f8       0x9c /cygdrive/e/mips/bin/../lib/gcc-lib/lexra-mpx-elf/3.2.1/../../../../lexra-mpx-elf/lib/soft-float/libc.a(strcpy.o)
                0x00000000800857f8                strcpy
 .text          0x0000000080085894       0x20 /cygdrive/e/mips/bin/../lib/gcc-lib/lexra-mpx-elf/3.2.1/../../../../lexra-mpx-elf/lib/soft-float/libc.a(strlen.o)
                0x0000000080085894                strlen
 .text          0x00000000800858b4       0x2c /cygdrive/e/mips/bin/../lib/gcc-lib/lexra-mpx-elf/3.2.1/../../../../lexra-mpx-elf/lib/soft-float/libc.a(toupper.o)
                0x00000000800858b4                toupper
 .text          0x00000000800858e0     0x1e64 /cygdrive/e/mips/bin/../lib/gcc-lib/lexra-mpx-elf/3.2.1/../../../../lexra-mpx-elf/lib/soft-float/libc.a(vfprintf.o)
                0x0000000080085a88                _vfprintf_r
                0x0000000080085a00                vfprintf
 .text          0x0000000080087744       0xe8 /cygdrive/e/mips/bin/../lib/gcc-lib/lexra-mpx-elf/3.2.1/../../../../lexra-mpx-elf/lib/soft-float/libc.a(vsnprintf.o)
                0x0000000080087744                vsnprintf
                0x00000000800877b8                _vsnprintf_r
 .text          0x000000008008782c      0x150 /cygdrive/e/mips/bin/../lib/gcc-lib/lexra-mpx-elf/3.2.1/../../../../lexra-mpx-elf/lib/soft-float/libc.a(wsetup.o)
                0x000000008008782c                __swsetup
 .text          0x000000008008797c     0x1830 /cygdrive/e/mips/bin/../lib/gcc-lib/lexra-mpx-elf/3.2.1/../../../../lexra-mpx-elf/lib/soft-float/libc.a(dtoa.o)
                0x0000000080087bf8                _dtoa_r
 .text          0x00000000800891ac      0x120 /cygdrive/e/mips/bin/../lib/gcc-lib/lexra-mpx-elf/3.2.1/../../../../lexra-mpx-elf/lib/soft-float/libc.a(fflush.o)
                0x00000000800891ac                fflush
 .text          0x00000000800892cc      0x298 /cygdrive/e/mips/bin/../lib/gcc-lib/lexra-mpx-elf/3.2.1/../../../../lexra-mpx-elf/lib/soft-float/libc.a(findfp.o)
                0x00000000800894dc                __sinit
                0x0000000080089328                __sfmoreglue
                0x00000000800894b4                _cleanup
                0x0000000080089490                _cleanup_r
                0x00000000800893a0                __sfp
 .text          0x0000000080089564      0x448 /cygdrive/e/mips/bin/../lib/gcc-lib/lexra-mpx-elf/3.2.1/../../../../lexra-mpx-elf/lib/soft-float/libc.a(freer.o)
                0x0000000080089564                _free_r
                0x0000000080089858                _malloc_trim_r
 .text          0x00000000800899ac      0x450 /cygdrive/e/mips/bin/../lib/gcc-lib/lexra-mpx-elf/3.2.1/../../../../lexra-mpx-elf/lib/soft-float/libc.a(fvwrite.o)
                0x00000000800899ac                __sfvwrite
 .text          0x0000000080089dfc       0xa0 /cygdrive/e/mips/bin/../lib/gcc-lib/lexra-mpx-elf/3.2.1/../../../../lexra-mpx-elf/lib/soft-float/libc.a(fwalk.o)
                0x0000000080089dfc                _fwalk
 .text          0x0000000080089e9c      0x104 /cygdrive/e/mips/bin/../lib/gcc-lib/lexra-mpx-elf/3.2.1/../../../../lexra-mpx-elf/lib/soft-float/libc.a(locale.o)
                0x0000000080089e9c                _setlocale_r
                0x0000000080089f30                __locale_charset
                0x0000000080089f3c                _localeconv_r
                0x0000000080089f48                setlocale
                0x0000000080089f78                localeconv
 .text          0x0000000080089fa0      0x17c /cygdrive/e/mips/bin/../lib/gcc-lib/lexra-mpx-elf/3.2.1/../../../../lexra-mpx-elf/lib/soft-float/libc.a(makebuf.o)
                0x0000000080089fa0                __smakebuf
 .text          0x000000008008a11c      0x888 /cygdrive/e/mips/bin/../lib/gcc-lib/lexra-mpx-elf/3.2.1/../../../../lexra-mpx-elf/lib/soft-float/libc.a(mallocr.o)
                0x000000008008a368                _malloc_r
 .text          0x000000008008a9a4       0x40 /cygdrive/e/mips/bin/../lib/gcc-lib/lexra-mpx-elf/3.2.1/../../../../lexra-mpx-elf/lib/soft-float/libc.a(mbtowc_r.o)
                0x000000008008a9a4                _mbtowc_r
 .text          0x000000008008a9e4       0xe8 /cygdrive/e/mips/bin/../lib/gcc-lib/lexra-mpx-elf/3.2.1/../../../../lexra-mpx-elf/lib/soft-float/libc.a(memchr.o)
                0x000000008008a9e4                memchr
 .text          0x000000008008aacc      0x134 /cygdrive/e/mips/bin/../lib/gcc-lib/lexra-mpx-elf/3.2.1/../../../../lexra-mpx-elf/lib/soft-float/libc.a(memmove.o)
                0x000000008008aacc                memmove
 .text          0x000000008008ac00       0x10 /cygdrive/e/mips/bin/../lib/gcc-lib/lexra-mpx-elf/3.2.1/../../../../lexra-mpx-elf/lib/soft-float/libc.a(mlock.o)
                0x000000008008ac08                __malloc_unlock
                0x000000008008ac00                __malloc_lock
 .text          0x000000008008ac10      0xfa0 /cygdrive/e/mips/bin/../lib/gcc-lib/lexra-mpx-elf/3.2.1/../../../../lexra-mpx-elf/lib/soft-float/libc.a(mprec.o)
                0x000000008008bb34                _mprec_log10
                0x000000008008af4c                _hi0bits
                0x000000008008ac10                _Balloc
                0x000000008008b914                _d2b
                0x000000008008b0c4                _multiply
                0x000000008008ba94                _ratio
                0x000000008008ae28                _s2b
                0x000000008008b08c                _i2b
                0x000000008008afcc                _lo0bits
                0x000000008008b570                __mcmp
                0x000000008008b304                _pow5mult
                0x000000008008b774                _ulp
                0x000000008008b7e4                _b2d
                0x000000008008ad04                _multadd
                0x000000008008b5e4                __mdiff
                0x000000008008b424                _lshift
                0x000000008008acd4                _Bfree
 .text          0x000000008008bbb0      0x5c8 /cygdrive/e/mips/bin/../lib/gcc-lib/lexra-mpx-elf/3.2.1/../../../../lexra-mpx-elf/lib/soft-float/libc.a(reallocr.o)
                0x000000008008bbb0                _realloc_r
 .text          0x000000008008c178       0x3c /cygdrive/e/mips/bin/../lib/gcc-lib/lexra-mpx-elf/3.2.1/../../../../lexra-mpx-elf/lib/soft-float/libc.a(s_isinf.o)
                0x000000008008c178                isinf
 .text          0x000000008008c1b4       0x2c /cygdrive/e/mips/bin/../lib/gcc-lib/lexra-mpx-elf/3.2.1/../../../../lexra-mpx-elf/lib/soft-float/libc.a(s_isnan.o)
                0x000000008008c1b4                isnan
 .text          0x000000008008c1e0       0x50 /cygdrive/e/mips/bin/../lib/gcc-lib/lexra-mpx-elf/3.2.1/../../../../lexra-mpx-elf/lib/soft-float/libc.a(sbrkr.o)
                0x000000008008c1e0                _sbrk_r
 .text          0x000000008008c230      0x1a4 /cygdrive/e/mips/bin/../lib/gcc-lib/lexra-mpx-elf/3.2.1/../../../../lexra-mpx-elf/lib/soft-float/libc.a(stdio.o)
                0x000000008008c334                __sseek
                0x000000008008c230                __sread
                0x000000008008c3ac                __sclose
                0x000000008008c2a4                __swrite
 .text          0x000000008008c3d4       0x94 /cygdrive/e/mips/bin/../lib/gcc-lib/lexra-mpx-elf/3.2.1/../../../../lexra-mpx-elf/lib/soft-float/libc.a(strcmp.o)
                0x000000008008c3d4                strcmp
 .text          0x000000008008c468       0x5c /cygdrive/e/mips/bin/../lib/gcc-lib/lexra-mpx-elf/3.2.1/../../../../lexra-mpx-elf/lib/soft-float/libc.a(writer.o)
                0x000000008008c468                _write_r
 .text          0x000000008008c4c4       0xc4 /cygdrive/e/mips/bin/../lib/gcc-lib/lexra-mpx-elf/3.2.1/../../../../lexra-mpx-elf/lib/soft-float/libc.a(callocr.o)
                0x000000008008c4c4                _calloc_r
 .text          0x000000008008c588       0x50 /cygdrive/e/mips/bin/../lib/gcc-lib/lexra-mpx-elf/3.2.1/../../../../lexra-mpx-elf/lib/soft-float/libc.a(closer.o)
                0x000000008008c588                _close_r
 .text          0x000000008008c5d8       0x58 /cygdrive/e/mips/bin/../lib/gcc-lib/lexra-mpx-elf/3.2.1/../../../../lexra-mpx-elf/lib/soft-float/libc.a(fstatr.o)
                0x000000008008c5d8                _fstat_r
 .text          0x000000008008c630       0x5c /cygdrive/e/mips/bin/../lib/gcc-lib/lexra-mpx-elf/3.2.1/../../../../lexra-mpx-elf/lib/soft-float/libc.a(lseekr.o)
                0x000000008008c630                _lseek_r
 .text          0x000000008008c68c       0x5c /cygdrive/e/mips/bin/../lib/gcc-lib/lexra-mpx-elf/3.2.1/../../../../lexra-mpx-elf/lib/soft-float/libc.a(readr.o)
                0x000000008008c68c                _read_r
 .text          0x000000008008c6e8      0x25c /cygdrive/e/mips/bin/../lib/gcc-lib/lexra-mpx-elf/3.2.1/../../../../lexra-mpx-elf/lib/soft-float/libc.a(reent.o)
                0x000000008008c6e8                cleanup_glue
                0x000000008008c740                _reclaim_reent
                0x000000008008c888                _wrapup_reent
 .text          0x000000008008c944      0x6b0 /cygdrive/e/mips/bin/../lib/gcc-lib/lexra-mpx-elf/3.2.1/soft-float/libgcc.a(_udivdi3.o)
                0x000000008008c944                __udivdi3
 .text          0x000000008008cff4      0x6bc /cygdrive/e/mips/bin/../lib/gcc-lib/lexra-mpx-elf/3.2.1/soft-float/libgcc.a(_umoddi3.o)
                0x000000008008cff4                __umoddi3
 .text          0x000000008008d6b0      0x458 /cygdrive/e/mips/bin/../lib/gcc-lib/lexra-mpx-elf/3.2.1/soft-float/libgcc.a(_addsub_df.o)
                0x000000008008da90                dpsub
                0x000000008008da28                dpadd
 .text          0x000000008008db08      0x400 /cygdrive/e/mips/bin/../lib/gcc-lib/lexra-mpx-elf/3.2.1/soft-float/libgcc.a(_mul_df.o)
                0x000000008008db08                dpmul
 .text          0x000000008008df08      0x258 /cygdrive/e/mips/bin/../lib/gcc-lib/lexra-mpx-elf/3.2.1/soft-float/libgcc.a(_div_df.o)
                0x000000008008df08                dpdiv
 .text          0x000000008008e160       0x5c /cygdrive/e/mips/bin/../lib/gcc-lib/lexra-mpx-elf/3.2.1/soft-float/libgcc.a(_compare_df.o)
                0x000000008008e160                dpcmp
 .text          0x000000008008e1bc       0xe4 /cygdrive/e/mips/bin/../lib/gcc-lib/lexra-mpx-elf/3.2.1/soft-float/libgcc.a(_si_to_df.o)
                0x000000008008e1bc                litodp
 .text          0x000000008008e2a0       0xd8 /cygdrive/e/mips/bin/../lib/gcc-lib/lexra-mpx-elf/3.2.1/soft-float/libgcc.a(_df_to_si.o)
                0x000000008008e2a0                dptoli
 .text          0x000000008008e378      0x290 /cygdrive/e/mips/bin/../lib/gcc-lib/lexra-mpx-elf/3.2.1/soft-float/libgcc.a(_pack_df.o)
                0x000000008008e378                __pack_d
 .text          0x000000008008e608      0x134 /cygdrive/e/mips/bin/../lib/gcc-lib/lexra-mpx-elf/3.2.1/soft-float/libgcc.a(_unpack_df.o)
                0x000000008008e608                __unpack_d
 .text          0x000000008008e73c      0x188 /cygdrive/e/mips/bin/../lib/gcc-lib/lexra-mpx-elf/3.2.1/soft-float/libgcc.a(_fpcmp_parts_df.o)
                0x000000008008e73c                __fpcmp_parts_d
 .text          0x000000008008e8c4       0xc8 ../../../libIPLAY/lib//libbios.a(startup.o)
                0x000000008008e8ec                GetUserBlkStart
                0x000000008008e8fc                FlushAllCache
                0x000000008008e954                FlushDataCache
 .text          0x000000008008e98c     0x12d0 ../../../libIPLAY/lib//libbios.a(MP650_uart.o)
                0x000000008008f938                HUartGetChar
                0x000000008008efc0                HUartWaitStatus
                0x000000008008fb50                HUartOutValue
                0x000000008008ebb0                HUartInit
                0x000000008008ea0c                Uart2Isr
                0x000000008008eabc                HUartClearCallBackFunc
                0x000000008008f058                HUartWaitTxComplete
                0x000000008008f420                HUartBufferWrite
                0x000000008008faa0                HUartFollowCtrl
                0x000000008008f9bc                HUartPutChar
                0x000000008008eb80                HUartClkSourceSel
                0x000000008008fa44                HUartPutCharDrop
                0x000000008008f824                HUartOutValueHex
                0x000000008008fb70                HUartA_PinMultiplexerEnable
                0x000000008008e98c                Uart1Isr
                0x000000008008f23c                HUartDmaRead
                0x000000008008f570                HUartDmaWrite
                0x000000008008eb30                HUartIntDisable
                0x000000008008f8d8                HUartOutValueDec
                0x000000008008eaec                HUartIntEnable
                0x000000008008ea8c                HUartRegisterCallBackFunc
                0x000000008008f6f8                HUartOutText
                0x000000008008f094                HUartBufferRead
 .text          0x000000008008fc5c      0x2f8 ../../../libIPLAY/lib//libos.a(semaphore.o)
                0x000000008008fc5c                SemaphoreCreate
                0x000000008008fefc                SemaphoreSet
                0x000000008008fd38                SemaphoreRelease
                0x000000008008fce0                SemaphoreDestroy
                0x000000008008fe8c                SemaphorePolling
                0x000000008008fddc                SemaphoreWait
 .text          0x000000008008ff54      0x108 ../../../libIPLAY/lib//libdisplay.a(ipu.o)
                0x000000008008ff54                TurnOnIPUClk
                0x0000000080090004                Ipu_WaitComplete
                0x000000008008ff70                TurnOffIPUClk
                0x000000008008ffa8                Ipu_CheckComplete
                0x000000008008ff8c                TurnOffIpuScalerClk
 .text          0x000000008009005c      0x9c0 ../../../libIPLAY/lib//libimage.a(jpegEncode.o)
                0x0000000080090368                Get_jpegEcodeQualityLevel
                0x000000008009035c                Set_jpegEcodeQualityLevel
                0x0000000080090590                SaveBuf2File
                0x00000000800908c8                JpegEncodeCopy
                0x000000008009037c                Img2Jpeg_WithQTable
                0x000000008009033c                Img2Jpeg
                0x0000000080090094                JpegEncode
                0x0000000080090374                JpegEncQTableInit
 .text          0x0000000080090a1c      0x2b8 ../../../libIPLAY/lib//libmpapi.a(mpImageRotateApi.o)
                0x0000000080090a1c                Img_Rotate90
                0x0000000080090c58                Img_Rotate180
                0x0000000080090b30                Img_Rotate270
 .text          0x0000000080090cd4       0x90 ../../../libIPLAY/lib//libdemux.a(board.o)
                0x0000000080090d44                times
                0x0000000080090d54                getpid
                0x0000000080090cd4                getpagesize
                0x0000000080090d08                get_mem_info
                0x0000000080090d14                isatty
                0x0000000080090d2c                lseek
                0x0000000080090d34                write
                0x0000000080090d24                fstat
                0x0000000080090d5c                kill
                0x0000000080090d3c                read
                0x0000000080090ce0                sbrk
                0x0000000080090d4c                gettimeofday
                0x0000000080090d1c                close
 *(.data)
 .data          0x0000000080090d64       0x40 ../object/xpgFunc.o
                0x0000000080090d64                actionFunctions
 .data          0x0000000080090da4      0x14c ../object/xpgString.o
 .data          0x0000000080090ef0       0x60 ../object/xpgDrawSprite.o
                0x0000000080090ef0                drawSpriteFunctions
 .data          0x0000000080090f50       0x10 ../object/camcorder_func.o
 .data          0x0000000080090f60       0x20 ../object/xpgProcSensorData.o
 .data          0x0000000080090f80      0x100 ../../../libIPLAY/lib//libbios.a(string.o)
                0x0000000080090f80                mp_ctype
 .data          0x0000000080091080      0xdbc ../../../libIPLAY/lib//libos.a(task.o)
                0x0000000080091080                TaskBank
 .data          0x0000000080091e3c       0x24 ../../../libIPLAY/lib//libos.a(memory.o)
 .data          0x0000000080091e60      0x40c ../../../libIPLAY/lib//libos.a(systimer.o)
 .data          0x000000008009226c      0x100 ../../../libIPLAY/lib//libos.a(interrupt.o)
 .data          0x000000008009236c       0x50 ../../../libIPLAY/lib//libMcard.a(mcard.o)
 .data          0x00000000800923bc       0xb4 ../../../libIPLAY/lib//libMcard.a(NandFTL.o)
 .data          0x0000000080092470       0x94 ../../../libIPLAY/lib//libMcard.a(NandPhyAdv_Mp650.o)
 .data          0x0000000080092504       0x24 ../../../libIPLAY/lib//libMcard.a(SD.o)
 .data          0x0000000080092528       0xf4 ../../../libIPLAY/lib//libMcard.a(Uti.o)
 .data          0x000000008009261c       0x28 ../../../libIPLAY/lib//libMcard.a(NandIdIdentify.o)
 .data          0x0000000080092644      0x134 ../../../libIPLAY/lib//libfile.a(file.o)
 .data          0x0000000080092778       0x38 ../../../libIPLAY/lib//libperipheral.a(hal_gpio.o)
 .data          0x00000000800927b0      0x1c8 ../../../libIPLAY/lib//libsystem.a(SystemConfig.o)
 .data          0x0000000080092978       0x80 ../../../libIPLAY/lib//libsystem.a(SystemMemory.o)
 .data          0x00000000800929f8       0x80 ../../../libIPLAY/lib//libsystem.a(global612.o)
 .data          0x0000000080092a78       0x60 ../../lib//libui.a(uiTouchCtrller.o)
                0x0000000080092a78                touchSpriteFunctions
 .data          0x0000000080092ad8       0x40 ../../../libIPLAY/lib//libdisplay.a(osd4.o)
                0x0000000080092ad8                dwDefaultPalette
 .data          0x0000000080092b18     0x1348 ../../../libIPLAY/lib//libdisplay.a(fontdisp.o)
                0x0000000080093a30                HeiTi20_FastIndexTab
                0x0000000080092d18                HeiTi16_FontTab
                0x00000000800931d8                HeiTi16_FastIndexTab
                0x0000000080092b18                Tahoma19_OffsetList
                0x00000000800935d8                HeiTi20_FontTab
 .data          0x0000000080093e60      0x9ac ../../../libIPLAY/lib//libdisplay.a(IduTable.o)
                0x0000000080094714                TCON_ID_NAME
                0x0000000080093e60                g_mstTCON
                0x000000008009460c                g_mstScreenTable
                0x0000000080094618                PANEL_ID_NAME
                0x000000008009442c                g_mstPanel
 .data          0x000000008009480c      0x210 ../../../libIPLAY/lib//libimage.a(jpeg_hal.o)
                0x000000008009484c                waBasePatchTable
                0x000000008009480c                baMinPatchTable
                0x00000000800948cc                baSymbolPatchTable
 *fill*         0x0000000080094a1c        0x4 00
 .data          0x0000000080094a20      0x380 /cygdrive/e/mips/bin/../lib/gcc-lib/lexra-mpx-elf/3.2.1/../../../../lexra-mpx-elf/lib/soft-float/libc.a(impure.o)
 .data          0x0000000080094da0        0xc /cygdrive/e/mips/bin/../lib/gcc-lib/lexra-mpx-elf/3.2.1/../../../../lexra-mpx-elf/lib/soft-float/libc.a(locale.o)
                0x0000000080094da0                __lc_ctype
 .data          0x0000000080094dac      0x430 /cygdrive/e/mips/bin/../lib/gcc-lib/lexra-mpx-elf/3.2.1/../../../../lexra-mpx-elf/lib/soft-float/libc.a(mallocr.o)
                0x00000000800951b4                __malloc_current_mallinfo
                0x0000000080094dac                __malloc_av_
 *(.rodata)
 .rodata        0x00000000800951dc      0xb44 ../object/main.o
 .rodata        0x0000000080095d20       0x60 ../object/ui_timer.o
 .rodata        0x0000000080095d80       0xe4 ../object/xpgFunc.o
 .rodata        0x0000000080095e64      0x340 ../object/xpgString.o
 .rodata        0x00000000800961a4       0x84 ../object/imageplayer.o
 .rodata        0x0000000080096228      0x1f4 ../object/Setup.o
 .rodata        0x000000008009641c      0x1b0 ../object/isp.o
 .rodata        0x00000000800965cc       0x24 ../object/xpgDriveFunc.o
 .rodata        0x00000000800965f0       0x64 ../object/xpgDrawSprite.o
 .rodata        0x0000000080096654       0x3c ../object/xpgBrowser.o
 .rodata        0x0000000080096690      0x204 ../object/camcorder_func.o
 .rodata        0x0000000080096894      0x104 ../object/UI_FileSystem.o
 .rodata        0x0000000080096998      0x4cc ../object/xpgProcSensorData.o
 .rodata        0x0000000080096e64       0x5c ../object/xpgPhotoFunc.o
 .rodata        0x0000000080096ec0      0x194 ../../../libIPLAY/lib//libbios.a(agent.o)
 .rodata        0x0000000080097054      0x570 ../../../libIPLAY/lib//libbios.a(hal_Ckg.o)
                0x00000000800975ac                dllDelayArray
 .rodata        0x00000000800975c4      0x3ac ../../../libIPLAY/lib//libbios.a(string.o)
 .rodata        0x0000000080097970      0x1c8 ../../../libIPLAY/lib//libos.a(cosmos.o)
 .rodata        0x0000000080097b38      0x190 ../../../libIPLAY/lib//libos.a(task.o)
 .rodata        0x0000000080097cc8       0x9c ../../../libIPLAY/lib//libos.a(object.o)
 .rodata        0x0000000080097d64       0x1c ../../../libIPLAY/lib//libos.a(event.o)
 .rodata        0x0000000080097d80       0x44 ../../../libIPLAY/lib//libos.a(message.o)
 .rodata        0x0000000080097dc4      0x62c ../../../libIPLAY/lib//libos.a(memory.o)
 .rodata        0x00000000800983f0      0x26c ../../../libIPLAY/lib//libos.a(systimer.o)
 .rodata        0x000000008009865c      0x130 ../../../libIPLAY/lib//libos.a(interrupt.o)
 .rodata        0x000000008009878c      0x1a4 ../../../libIPLAY/lib//libMcard.a(mcard.o)
 .rodata        0x0000000080098930      0x5d0 ../../../libIPLAY/lib//libMcard.a(NandFTL.o)
 .rodata        0x0000000080098f00      0x828 ../../../libIPLAY/lib//libMcard.a(NandPhyAdv_Mp650.o)
 .rodata        0x0000000080099728      0x308 ../../../libIPLAY/lib//libMcard.a(SD.o)
 .rodata        0x0000000080099a30      0x2a4 ../../../libIPLAY/lib//libMcard.a(SdPhy_Mp650.o)
 .rodata        0x0000000080099cd4       0x74 ../../../libIPLAY/lib//libMcard.a(Uti.o)
 .rodata        0x0000000080099d48      0x9bc ../../../libIPLAY/lib//libfile.a(dir.o)
 .rodata        0x000000008009a704      0x89c ../../../libIPLAY/lib//libfile.a(chain.o)
 .rodata        0x000000008009afa0     0x100c ../../../libIPLAY/lib//libfile.a(drive.o)
 .rodata        0x000000008009bfac     0x23b4 ../../../libIPLAY/lib//libfile.a(file.o)
 .rodata        0x000000008009e360      0xc70 ../../../libIPLAY/lib//libfile.a(Format.o)
 .rodata        0x000000008009efd0      0x54c ../../../libIPLAY/lib//libfile.a(filebrowser.o)
 .rodata        0x000000008009f51c      0x88c ../../../libIPLAY/lib//libperipheral.a(hal_gpio.o)
 .rodata        0x000000008009fda8      0x2a0 ../../../libIPLAY/lib//libperipheral.a(hal_mmcp.o)
 .rodata        0x00000000800a0048      0x108 ../../../libIPLAY/lib//libperipheral.a(hal_rtc.o)
 .rodata        0x00000000800a0150      0x1c0 ../../../libIPLAY/lib//libsystem.a(SystemConfig.o)
 .rodata        0x00000000800a0310      0x130 ../../../libIPLAY/lib//libsystem.a(SystemMemory.o)
 .rodata        0x00000000800a0440      0x140 ../../../libIPLAY/lib//libsystem.a(SystemDrive.o)
 .rodata        0x00000000800a0580      0x374 ../../../libIPLAY/lib//libsystem.a(global612.o)
 .rodata        0x00000000800a08f4      0x64c ../../../libIPLAY/lib//libsystem.a(ISP_Nand.o)
 .rodata        0x00000000800a0f40       0x98 ../../../libIPLAY/lib//libsystem.a(McardDevInfo.o)
 .rodata        0x00000000800a0fd8      0x314 ../../../libIPLAY/lib//libsystem.a(SetTabFunc.o)
 .rodata        0x00000000800a12ec      0x144 ../../lib//libui.a(uiTouchCtrller.o)
 .rodata        0x00000000800a1430      0x2fc ../../../libIPLAY/lib//libdisplay.a(idu.o)
 .rodata        0x00000000800a172c       0x14 ../../../libIPLAY/lib//libdisplay.a(osd.o)
 .rodata        0x00000000800a1740       0x18 ../../../libIPLAY/lib//libdisplay.a(osd4.o)
 .rodata        0x00000000800a1758     0xed64 ../../../libIPLAY/lib//libdisplay.a(fontdisp.o)
                0x00000000800a4b88                HeiTi16_fontdata
                0x00000000800a1758                Tahoma19_fontdata
                0x00000000800a90d8                HeiTi20_fontdata
 .rodata        0x00000000800b04bc       0x34 ../../../libIPLAY/lib//libdisplay.a(imgWin.o)
 .rodata        0x00000000800b04f0      0x77c ../../../libIPLAY/lib//libdisplay.a(IduTable.o)
 .rodata        0x00000000800b0c6c      0x330 ../../../libIPLAY/lib//libdisplay.a(scaler_650.o)
 .rodata        0x00000000800b0f9c       0x84 ../../../libIPLAY/lib//libdisplay.a(hal_ipu.o)
 .rodata        0x00000000800b1020       0x60 ../../../libIPLAY/lib//libsensor.a(sensor_manager.o)
 .rodata        0x00000000800b1080      0x154 ../../../libIPLAY/lib//libsensor.a(sensor_driver_NT99140.o)
 .rodata        0x00000000800b11d4      0x414 ../../../libIPLAY/lib//libsensor.a(sensor_NT99140.o)
 .rodata        0x00000000800b15e8      0x4dc ../../../libIPLAY/lib//libimage.a(jpeg_hal.o)
 .rodata        0x00000000800b1ac4      0x168 ../../../libIPLAY/lib//libimage.a(IMG_jpeg.o)
 .rodata        0x00000000800b1c2c      0x1c0 ../../../libIPLAY/lib//libmpapi.a(api_main.o)
 .rodata        0x00000000800b1dec       0x48 ../../../libIPLAY/lib//libmpapi.a(mpImageApi.o)
 .rodata        0x00000000800b1e34       0x78 ../../../libIPLAY/lib//libmpapi.a(mpUtil.o)
 .rodata        0x00000000800b1eac      0x26c ../../../libIPLAY/lib//libmpapi.a(mpImageFileApi.o)
 .rodata        0x00000000800b2118      0x2c4 ../../../libIPLAY/lib//libmpapi.a(mpStreamApi.o)
 .rodata        0x00000000800b23dc       0x2c ../../../libIPLAY/lib//libjpeg.a(jdapimin.o)
 .rodata        0x00000000800b2408       0x18 ../../../libIPLAY/lib//libjpeg.a(jdmaster.o)
 .rodata        0x00000000800b2420       0x40 ../../../libIPLAY/lib//libjpeg.a(jdphuff.o)
                0x00000000800b2420                extend_test
 .rodata        0x00000000800b2460       0x80 ../../../libIPLAY/lib//libjpeg.a(jdhuff.o)
 .rodata        0x00000000800b24e0      0x280 ../../../libIPLAY/lib//libjpeg.a(jutils.o)
                0x00000000800b2620                jpeg_natural_bit_order
                0x00000000800b24e0                jpeg_natural_order
 .rodata        0x00000000800b2760       0x80 ../../../libIPLAY/lib//libjpeg.a(jddctmgr.o)
 .rodata        0x00000000800b27e0       0x18 ../../../libIPLAY/lib//libjpeg.a(jdcolor.o)
 .rodata        0x00000000800b27f8     0x1478 ../../../libIPLAY/lib//libjpeg.a(jerror.o)
                0x00000000800b3a7c                jpeg_std_message_table
 .rodata        0x00000000800b3c70      0x100 ../../../libIPLAY/lib//libavipacker.a(AVI_Stream.o)
 .rodata        0x00000000800b3d70      0x20c ../../../libIPLAY/lib//libavipacker.a(AVI_packerAPI.o)
 .rodata        0x00000000800b3f7c       0x20 ../../../libIPLAY/lib//libavipacker.a(AVI_Utility.o)
 .rodata        0x00000000800b3f9c      0x288 ../../../libIPLAY/lib//libutil.a(util_CharString.o)
 .rodata        0x00000000800b4224      0xbc4 ../../../libIPLAY/lib//libRecord.a(record_task.o)
 .rodata        0x00000000800b4de8       0x4c ../../../libIPLAY/lib//libtouchctrl.a(touchCtrller.o)
 .rodata        0x00000000800b4e34       0xcc ../../../libIPLAY/lib//libtouchctrl.a(tc_gt911.o)
 .rodata        0x00000000800b4f00      0x1f0 ../../../libIPLAY/lib//libxpg.a(xpg.o)
 .rodata        0x00000000800b50f0       0x64 ../../../libIPLAY/lib//libxpg.a(xpgUtil.o)
 .rodata        0x00000000800b5154       0x84 ../../../libIPLAY/lib//libxpg.a(xpgRole.o)
 .rodata        0x00000000800b51d8      0x184 ../../../libIPLAY/lib//libxpg.a(xpgReader.o)
 .rodata        0x00000000800b535c       0xac ../../../libIPLAY/lib//libxpg.a(xpgDraw.o)
 .rodata        0x00000000800b5408      0x1c8 /cygdrive/e/mips/bin/../lib/gcc-lib/lexra-mpx-elf/3.2.1/../../../../lexra-mpx-elf/lib/soft-float/libc.a(vfprintf.o)
 .rodata        0x00000000800b55d0      0x180 /cygdrive/e/mips/bin/../lib/gcc-lib/lexra-mpx-elf/3.2.1/../../../../lexra-mpx-elf/lib/soft-float/libc.a(ctype_.o)
                0x00000000800b564f                _ctype_
 .rodata        0x00000000800b5750       0x40 /cygdrive/e/mips/bin/../lib/gcc-lib/lexra-mpx-elf/3.2.1/../../../../lexra-mpx-elf/lib/soft-float/libc.a(dtoa.o)
 .rodata        0x00000000800b5790       0x3c /cygdrive/e/mips/bin/../lib/gcc-lib/lexra-mpx-elf/3.2.1/../../../../lexra-mpx-elf/lib/soft-float/libc.a(locale.o)
 *fill*         0x00000000800b57cc        0x4 00
 .rodata        0x00000000800b57d0      0x128 /cygdrive/e/mips/bin/../lib/gcc-lib/lexra-mpx-elf/3.2.1/../../../../lexra-mpx-elf/lib/soft-float/libc.a(mprec.o)
                0x00000000800b58d0                __mprec_tinytens
                0x00000000800b57e0                __mprec_tens
                0x00000000800b58a8                __mprec_bigtens
 .rodata        0x00000000800b58f8       0x18 /cygdrive/e/mips/bin/../lib/gcc-lib/lexra-mpx-elf/3.2.1/soft-float/libgcc.a(_thenan_df.o)
                0x00000000800b58f8                __thenan_df
 .rodata        0x00000000800b5910      0x100 /cygdrive/e/mips/bin/../lib/gcc-lib/lexra-mpx-elf/3.2.1/soft-float/libgcc.a(_clz.o)
                0x00000000800b5910                __clz_tab
 .rodata        0x00000000800b5a10       0xe8 ../../../libIPLAY/lib//libbios.a(MP650_uart.o)
 .rodata        0x00000000800b5af8      0xd08 ../../../libIPLAY/lib//libimage.a(jpegEncode.o)
                0x00000000800b5af8                StandardQt
                0x00000000800b618c                CduHet
                0x00000000800b5f8c                CduQt
                0x00000000800b648c                bJpegHeader
 .rodata        0x00000000800b6800       0x18 ../../../libIPLAY/lib//libdemux.a(board.o)
                0x00000000800b6818                . = ALIGN (0x4)
                0x00000000800b6818                LD_kmodapi_start = .

.kmodapi
 *(.kmodapi)
                0x00000000800b6818                LD_kmodapi_end = .

.sdata          0x00000000800b6818      0xaa8
 *(.sdata)
 .sdata         0x00000000800b6818       0x40 ../object/main.o
 .sdata         0x00000000800b6858       0x14 ../object/ui_timer.o
 .sdata         0x00000000800b686c       0x34 ../object/xpgFunc.o
                0x00000000800b6870                g_dwModeIconStatus
                0x00000000800b6880                g_bNeedUpdateOsd
                0x00000000800b6878                g_boSaveFileToSPI
                0x00000000800b6874                CameraInit
                0x00000000800b686c                g_dwCurIndex
 .sdata         0x00000000800b68a0       0xc4 ../object/xpgString.o
                0x00000000800b695c                langid
                0x00000000800b6960                xpgString
 .sdata         0x00000000800b6964       0x20 ../object/Setup.o
                0x00000000800b6968                g_psSetupMenu
                0x00000000800b6964                bSetUpChg
 .sdata         0x00000000800b6984       0x50 ../object/xpgDrawSprite.o
 .sdata         0x00000000800b69d4       0x14 ../object/camcorder_func.o
 .sdata         0x00000000800b69e8       0x14 ../object/UI_FileSystem.o
 .sdata         0x00000000800b69fc       0x90 ../object/xpgProcSensorData.o
                0x00000000800b6a7c                st_dwAFbrightChg
                0x00000000800b6a78                g_swAutoFocusState
                0x00000000800b6a80                st_bAFMotoIndex
                0x00000000800b6a04                g_wElectrodePos
                0x00000000800b69fe                g_swGetCenterState
                0x00000000800b6a4f                g_bDisplayUseIpw2
                0x00000000800b6a82                st_swAFStep
                0x00000000800b6a00                g_swProcState
 .sdata         0x00000000800b6a8c       0x14 ../../../libIPLAY/lib//libbios.a(agent.o)
                0x00000000800b6a98                uartIntMaskPattern
                0x00000000800b6a9c                uartIntCauseCleanPattern
 .sdata         0x00000000800b6aa0       0x20 ../../../libIPLAY/lib//libbios.a(hal_Ckg.o)
 .sdata         0x00000000800b6ac0        0x8 ../../../libIPLAY/lib//libbios.a(string.o)
 .sdata         0x00000000800b6ac8        0xc ../../../libIPLAY/lib//libos.a(task.o)
                0x00000000800b6acc                boolContext
 .sdata         0x00000000800b6ad4        0x4 ../../../libIPLAY/lib//libos.a(systimer.o)
                0x00000000800b6ad4                TickCount
 .sdata         0x00000000800b6ad8       0x18 ../../../libIPLAY/lib//libMcard.a(mcard.o)
 .sdata         0x00000000800b6af0       0x58 ../../../libIPLAY/lib//libMcard.a(NandFTL.o)
 .sdata         0x00000000800b6b48       0x44 ../../../libIPLAY/lib//libMcard.a(NandPhyAdv_Mp650.o)
 .sdata         0x00000000800b6b8c       0x20 ../../../libIPLAY/lib//libMcard.a(SD.o)
 .sdata         0x00000000800b6bac        0x8 ../../../libIPLAY/lib//libMcard.a(SdPhy_Mp650.o)
 .sdata         0x00000000800b6bb4       0x1c ../../../libIPLAY/lib//libMcard.a(Uti.o)
 .sdata         0x00000000800b6bd0       0x34 ../../../libIPLAY/lib//libfile.a(dir.o)
 .sdata         0x00000000800b6c04        0xc ../../../libIPLAY/lib//libfile.a(chain.o)
 .sdata         0x00000000800b6c10       0x24 ../../../libIPLAY/lib//libfile.a(drive.o)
 .sdata         0x00000000800b6c34      0x198 ../../../libIPLAY/lib//libfile.a(file.o)
                0x00000000800b6c44                fileUiUpdateIconAniPtr
                0x00000000800b6c34                ReplaceGlyph
 .sdata         0x00000000800b6dcc       0x10 ../../../libIPLAY/lib//libfile.a(filebrowser.o)
                0x00000000800b6dcc                g_pstBrowser
 .sdata         0x00000000800b6ddc        0x4 ../../../libIPLAY/lib//libperipheral.a(hal_gpio.o)
 .sdata         0x00000000800b6de0        0xc ../../../libIPLAY/lib//libperipheral.a(hal_mmcp.o)
 .sdata         0x00000000800b6dec        0x4 ../../../libIPLAY/lib//libperipheral.a(hal_rtc.o)
 .sdata         0x00000000800b6df0       0x44 ../../../libIPLAY/lib//libsystem.a(SystemConfig.o)
                0x00000000800b6df4                g_psSystemConfig
                0x00000000800b6df0                g_bXpgStatus
 .sdata         0x00000000800b6e34        0x8 ../../../libIPLAY/lib//libsystem.a(SystemMemory.o)
 .sdata         0x00000000800b6e3c       0x30 ../../../libIPLAY/lib//libsystem.a(SystemDrive.o)
 .sdata         0x00000000800b6e6c       0x30 ../../../libIPLAY/lib//libsystem.a(global612.o)
                0x00000000800b6e90                g_psClkSs2
                0x00000000800b6e74                g_psClock
                0x00000000800b6e6c                g_psAiu
                0x00000000800b6e78                g_psDma
                0x00000000800b6e84                g_bAniFlag
                0x00000000800b6e88                g_bVolumeIndex
                0x00000000800b6e8c                g_psClkSs1
                0x00000000800b6e70                g_psBiu
                0x00000000800b6e80                g_psGpio
                0x00000000800b6e7c                g_psDmaAiu
 .sdata         0x00000000800b6e9c       0x18 ../../../libIPLAY/lib//libsystem.a(ISP_Nand.o)
 .sdata         0x00000000800b6eb4        0x8 ../../../libIPLAY/lib//libsystem.a(McardDevInfo.o)
 .sdata         0x00000000800b6ebc       0x10 ../../../libIPLAY/lib//libsystem.a(SetTabFunc.o)
 .sdata         0x00000000800b6ecc        0x1 ../../lib//libui.a(uigpio.o)
 *fill*         0x00000000800b6ecd        0x3 00
 .sdata         0x00000000800b6ed0       0x54 ../../lib//libui.a(uiTouchCtrller.o)
                0x00000000800b6ed0                dwLastTouchActionTime
 .sdata         0x00000000800b6f24       0x24 ../../../libIPLAY/lib//libdisplay.a(idu.o)
                0x00000000800b6f2c                decodeFrameRate
                0x00000000800b6f40                DtdRegSetting
                0x00000000800b6f44                bIduInit
                0x00000000800b6f3c                DtdClkSetting
                0x00000000800b6f34                g_IDU_444_422_Flag
 .sdata         0x00000000800b6f48        0x4 ../../../libIPLAY/lib//libdisplay.a(osd4.o)
 .sdata         0x00000000800b6f4c        0xc ../../../libIPLAY/lib//libdisplay.a(imgString.o)
                0x00000000800b6f4c                g_bFixFontFlag
                0x00000000800b6f56                bSystemFontColorG
                0x00000000800b6f54                bSystemFontColorRGB
                0x00000000800b6f57                bSystemFontColorB
                0x00000000800b6f50                g_dwSystemFontColor
                0x00000000800b6f55                bSystemFontColorR
 .sdata         0x00000000800b6f58       0x4c ../../../libIPLAY/lib//libdisplay.a(IduTable.o)
 .sdata         0x00000000800b6fa4        0xc ../../../libIPLAY/lib//libdisplay.a(scaler_650.o)
                0x00000000800b6fa4                sce
                0x00000000800b6fa8                g_pstScalerPara
 .sdata         0x00000000800b6fb0       0x30 ../../../libIPLAY/lib//libsensor.a(sensor_manager.o)
                0x00000000800b6fbc                sensor_mode
                0x00000000800b6fc8                SensorWindow_setFlag
                0x00000000800b6fb8                pbSensorWinBuffer
                0x00000000800b6fc4                SensorWindow_PosX
                0x00000000800b6fc6                SensorWindow_PosY
                0x00000000800b6fbd                sensor_IMGSIZE_ID
                0x00000000800b6fc0                SensorWindow_Width
                0x00000000800b6fb0                SensorInputWidth
                0x00000000800b6fc2                SensorWindow_Height
                0x00000000800b6fbe                overlay_enable
                0x00000000800b6fb4                SensorInputHeight
 .sdata         0x00000000800b6fe0        0xc ../../../libIPLAY/lib//libsensor.a(sensor_driver_NT99140.o)
                0x00000000800b6fe4                boIsNightMode
 .sdata         0x00000000800b6fec        0xc ../../../libIPLAY/lib//libsensor.a(sensor_NT99140.o)
                0x00000000800b6fed                g_bDisplayMode
 .sdata         0x00000000800b6ff8       0x10 ../../../libIPLAY/lib//libimage.a(jpeg_hal.o)
                0x00000000800b7001                JpegDecoder444
                0x00000000800b6ff8                g_psCurJpeg
                0x00000000800b7004                g_pbChaseBuffer
                0x00000000800b7002                SetFixedRatio444_422Flag
 .sdata         0x00000000800b7008        0x4 ../../../libIPLAY/lib//libimage.a(IMG_jpeg.o)
 .sdata         0x00000000800b700c       0x40 ../../../libIPLAY/lib//libmpapi.a(api_main.o)
                0x00000000800b700c                CHANGMODE
 .sdata         0x00000000800b704c        0x4 ../../../libIPLAY/lib//libmpapi.a(mpImageApi.o)
                0x00000000800b704c                VerticalOffset
                0x00000000800b704e                HorizontalOffset
 .sdata         0x00000000800b7050        0x8 ../../../libIPLAY/lib//libmpapi.a(mpTrace.o)
 .sdata         0x00000000800b7058       0x10 ../../../libIPLAY/lib//libmpapi.a(mpImageFileApi.o)
                0x00000000800b7058                g_psCurImageFile
                0x00000000800b7064                g_wDecodedImageType
 .sdata         0x00000000800b7068        0xc ../../../libIPLAY/lib//libmpapi.a(mpStreamApi.o)
 .sdata         0x00000000800b7074       0x10 ../../../libIPLAY/lib//libjpeg.a(jmemmgr.o)
 .sdata         0x00000000800b7084        0x8 ../../../libIPLAY/lib//libjpeg.a(jerror.o)
 .sdata         0x00000000800b708c       0x18 ../../../libIPLAY/lib//libavipacker.a(AVI_Stream.o)
                0x00000000800b7090                get_onepicture
                0x00000000800b7094                write_onepicture
 .sdata         0x00000000800b70a4       0x94 ../../../libIPLAY/lib//libavipacker.a(AVI_packerAPI.o)
                0x00000000800b70c8                jpg_size_1
                0x00000000800b70c0                start_1
                0x00000000800b70dc                outName
                0x00000000800b70b0                aviend
                0x00000000800b70bc                file_math
                0x00000000800b70e0                jpg_size_total
                0x00000000800b70c4                off_1
                0x00000000800b70d0                index_count
                0x00000000800b70cc                pcm_size_1
                0x00000000800b70b8                aviStart
                0x00000000800b70ac                index_close
                0x00000000800b70b4                aviPackerCnt
                0x00000000800b70a4                jpg_cnt
 .sdata         0x00000000800b7138       0x3c ../../../libIPLAY/lib//libavipacker.a(AVI_Packer.o)
 .sdata         0x00000000800b7174       0x7c ../../../libIPLAY/lib//libRecord.a(record_task.o)
                0x00000000800b717c                S_Recording_stop_state
                0x00000000800b71e8                now
                0x00000000800b71b8                VIDEO_WIDTH
                0x00000000800b71e4                sce1
                0x00000000800b71cc                ExceptionCheck
                0x00000000800b71c8                cache_size_avi
                0x00000000800b7194                S_VIDEO_REC_OP_PREVIEW_START
                0x00000000800b71a4                S_VIDEO_REC_OP_RECORDING_PAUSE
                0x00000000800b71d0                no_movie
                0x00000000800b718c                S_ExceptionCheck_state
                0x00000000800b71a0                S_VIDEO_REC_OP_PREVIEW_STOP
                0x00000000800b71b4                fps_record
                0x00000000800b719c                S_VIDEO_REC_OP_RECORDING_STOP
                0x00000000800b7190                S_Unknown_state
                0x00000000800b71dc                extname
                0x00000000800b7178                S_Recording_state
                0x00000000800b71e0                record_time
                0x00000000800b7184                S_Preview_stop_state
                0x00000000800b71d4                count_num
                0x00000000800b71ec                ok
                0x00000000800b7174                S_Preview_state
                0x00000000800b71b0                S_VIDEO_REC_OP_Unknown
                0x00000000800b7188                S_Rec_StandBy_state
                0x00000000800b7198                S_VIDEO_REC_OP_RECORDING_START
                0x00000000800b71bc                VIDEO_HEIGHT
                0x00000000800b71d8                picDecodeNumber1
                0x00000000800b71ac                S_VIDEO_REC_OP_RECORDING_EXCEPTION
                0x00000000800b71c0                recordTaskState
                0x00000000800b71c4                file_size_avi
                0x00000000800b7180                S_Recording_pause_state
                0x00000000800b71a8                S_VIDEO_REC_OP_RECORDING_RESUME
 .sdata         0x00000000800b71f0        0x4 ../../../libIPLAY/lib//libtouchctrl.a(tcapi.o)
 .sdata         0x00000000800b71f4       0x10 ../../../libIPLAY/lib//libtouchctrl.a(touchCtrller.o)
 .sdata         0x00000000800b7204       0x14 ../../../libIPLAY/lib//libtouchctrl.a(tc_gt911.o)
                0x00000000800b7204                ACK1
                0x00000000800b7206                ACK3
                0x00000000800b7205                ACK2
 .sdata         0x00000000800b7218        0x8 ../../../libIPLAY/lib//libxpg.a(xpg.o)
                0x00000000800b721c                g_boNeedRepaint
                0x00000000800b7218                g_pstXpgMovie
 .sdata         0x00000000800b7220        0x8 ../../../libIPLAY/lib//libxpg.a(xpgUtil.o)
 .sdata         0x00000000800b7228        0xc ../../../libIPLAY/lib//libxpg.a(xpgReader.o)
                0x00000000800b7228                xpglogHandle
                0x00000000800b722c                startPage
 .sdata         0x00000000800b7234        0xc ../../../libIPLAY/lib//libxpg.a(xpgUi.o)
 .sdata         0x00000000800b7240       0x18 /cygdrive/e/mips/bin/../lib/gcc-lib/lexra-mpx-elf/3.2.1/../../../../lexra-mpx-elf/lib/soft-float/libc.a(vfprintf.o)
 .sdata         0x00000000800b7258        0x4 /cygdrive/e/mips/bin/../lib/gcc-lib/lexra-mpx-elf/3.2.1/../../../../lexra-mpx-elf/lib/soft-float/libc.a(ctype_.o)
                0x00000000800b7258                __ctype_ptr
 .sdata         0x00000000800b725c        0x8 /cygdrive/e/mips/bin/../lib/gcc-lib/lexra-mpx-elf/3.2.1/../../../../lexra-mpx-elf/lib/soft-float/libc.a(dtoa.o)
 .sdata         0x00000000800b7264        0x8 /cygdrive/e/mips/bin/../lib/gcc-lib/lexra-mpx-elf/3.2.1/../../../../lexra-mpx-elf/lib/soft-float/libc.a(impure.o)
                0x00000000800b7268                _impure_ptr
 .sdata         0x00000000800b726c       0x20 /cygdrive/e/mips/bin/../lib/gcc-lib/lexra-mpx-elf/3.2.1/../../../../lexra-mpx-elf/lib/soft-float/libc.a(locale.o)
                0x00000000800b726c                __mb_cur_max
                0x00000000800b7270                __nlocale_changed
                0x00000000800b7274                __mlocale_changed
                0x00000000800b7278                _PathLocale
 .sdata         0x00000000800b728c       0x14 /cygdrive/e/mips/bin/../lib/gcc-lib/lexra-mpx-elf/3.2.1/../../../../lexra-mpx-elf/lib/soft-float/libc.a(mallocr.o)
                0x00000000800b7290                __malloc_top_pad
                0x00000000800b7298                __malloc_max_sbrked_mem
                0x00000000800b7294                __malloc_sbrk_base
                0x00000000800b729c                __malloc_max_total_mem
                0x00000000800b728c                __malloc_trim_threshold
 .sdata         0x00000000800b72a0       0x14 ../../../libIPLAY/lib//libbios.a(MP650_uart.o)
 .sdata         0x00000000800b72b4        0x1 ../../../libIPLAY/lib//libimage.a(jpegEncode.o)
                0x00000000800b72b4                g_jpegEcodeQualityLevel
 *fill*         0x00000000800b72b5        0x3 00
 .sdata         0x00000000800b72b8        0x8 ../../../libIPLAY/lib//libdemux.a(board.o)
                0x00000000800b72bc                heap_max
                0x00000000800b72c0                _sram_start = .

.sram           0x00000000800b72c0        0x0
 *(.sram)
 *(.sram1)
 *(.sram_code)
                0x00000000800b72c0                _sram_end = .
                0x00000000800b72c0                kernel_module_sarea = .

.kernel_module  0x00000000800b72c0     0x7554
                0x00000000800be814                . = ((((. + 0x8000) - SIZEOF (.sdata)) - SIZEOF (.sram)) - 0x4)
 *fill*         0x00000000800b72c0 0x100007554 00
 *fill*         0x00000000800be814 0x100000000 00
                0x00000000800be814                kernel_module_sarea_end = .
                0x00000000800be814                . = ALIGN (0x4)
                0x00000000800be814                _gp = .

.lit8
 *(.lit8)

.sbss           0x00000000800be818      0x444
 *(.comm)
 *(.lcomm)
 *(.scommon)
 .scommon       0x00000000800be818        0x4 ../object/main.o
                                          0x0 (size before relaxing)
                0x00000000800be818                E_FILE_OP_TYPE
 .scommon       0x00000000800be81c        0x4 ../object/xpgFunc.o
                                          0x0 (size before relaxing)
                0x00000000800be81c                g_MinidvMode
 .scommon       0x00000000800be820        0xc ../object/xpgProcSensorData.o
                                          0x0 (size before relaxing)
                0x00000000800be820                st_AFMinWidth
                0x00000000800be822                st_wAFStartY
                0x00000000800be824                st_AFLastWidth
                0x00000000800be82a                st_bAFReturnTimes
                0x00000000800be826                st_wAFStartX
                0x00000000800be82b                st_bAFFirsetTry
                0x00000000800be828                st_wWhiteWidth
 .scommon       0x00000000800be82c        0x4 ../../../libIPLAY/lib//libMcard.a(mcard.o)
                                          0x0 (size before relaxing)
                0x00000000800be82c                psMcardDev
 .scommon       0x00000000800be830        0x8 ../../../libIPLAY/lib//libMcard.a(NandFTL.o)
                                          0x0 (size before relaxing)
                0x00000000800be830                StatusTypeFlag
                0x00000000800be834                LogBlkStatus
 .scommon       0x00000000800be838        0x4 ../../../libIPLAY/lib//libsystem.a(SystemConfig.o)
                                          0x0 (size before relaxing)
                0x00000000800be838                g_pMovieScreenWin
 .scommon       0x00000000800be83c        0x8 ../../../libIPLAY/lib//libdisplay.a(imgWin.o)
                                          0x0 (size before relaxing)
                0x00000000800be83c                psCurrWin
                0x00000000800be840                psNextWin
 .scommon       0x00000000800be844        0x4 ../../../libIPLAY/lib//libmpapi.a(api_main.o)
                                          0x0 (size before relaxing)
                0x00000000800be844                boVideoPreview
 .scommon       0x00000000800be848        0x8 ../../../libIPLAY/lib//libjpeg.a(jpeg_decoder.o)
                                          0x0 (size before relaxing)
                0x00000000800be848                sdbuf_left
                0x00000000800be84c                test285flag
 .scommon       0x00000000800be850        0x8 ../../../libIPLAY/lib//libavipacker.a(AVI_Stream.o)
                                          0x0 (size before relaxing)
                0x00000000800be850                jpg_size_2
                0x00000000800be854                getpicturebuf
 .scommon       0x00000000800be858        0x8 ../../../libIPLAY/lib//libavipacker.a(AVI_packerAPI.o)
                                          0x0 (size before relaxing)
                0x00000000800be858                g_dwRecordStartTime
                0x00000000800be85c                idx_1
 .scommon       0x00000000800be860        0x4 ../../../libIPLAY/lib//libavipacker.a(AVI_Packer.o)
                                          0x0 (size before relaxing)
                0x00000000800be860                chunksize
 .scommon       0x00000000800be864        0x4 ../../../libIPLAY/lib//libxpg.a(xpgDraw.o)
                                          0x0 (size before relaxing)
                0x00000000800be864                g_pXpgCanvasWin
 .scommon       0x00000000800be868        0x4 ../../../libIPLAY/lib//libxpg.a(xpgUi.o)
                                          0x0 (size before relaxing)
                0x00000000800be868                xpgActionFunctions
 .scommon       0x00000000800be86c        0x4 /cygdrive/e/mips/bin/../lib/gcc-lib/lexra-mpx-elf/3.2.1/../../../../lexra-mpx-elf/lib/soft-float/libc.a(reent.o)
                                          0x0 (size before relaxing)
                0x00000000800be86c                errno
 *(.sbss)
 .sbss          0x00000000800be870        0x8 ../object/main.o
 .sbss          0x00000000800be878        0x8 ../object/ui_timer.o
 .sbss          0x00000000800be880        0x8 ../object/xpgFunc.o
 .sbss          0x00000000800be888        0x8 ../object/xpgString.o
 .sbss          0x00000000800be890        0x8 ../object/imageplayer.o
 .sbss          0x00000000800be898        0x8 ../object/Setup.o
 .sbss          0x00000000800be8a0        0x8 ../object/isp.o
 .sbss          0x00000000800be8a8        0x8 ../object/xpgDriveFunc.o
 .sbss          0x00000000800be8b0        0x8 ../object/xpgDrawSprite.o
 .sbss          0x00000000800be8b8        0x8 ../object/xpgBrowser.o
 .sbss          0x00000000800be8c0        0x8 ../object/platform.o
 .sbss          0x00000000800be8c8        0x8 ../object/camcorder_func.o
 .sbss          0x00000000800be8d0        0x8 ../object/WebCam.o
 .sbss          0x00000000800be8d8        0x8 ../object/UI_FileSystem.o
 .sbss          0x00000000800be8e0       0x10 ../object/xpgProcSensorData.o
 .sbss          0x00000000800be8f0        0x8 ../object/xpgVideoFunc.o
 .sbss          0x00000000800be8f8        0x8 ../object/xpgPhotoFunc.o
 .sbss          0x00000000800be900       0x20 ../../../libIPLAY/lib//libbios.a(agent.o)
 .sbss          0x00000000800be920        0x8 ../../../libIPLAY/lib//libbios.a(hal_Ckg.o)
 .sbss          0x00000000800be928        0xc ../../../libIPLAY/lib//libos.a(cosmos.o)
 .sbss          0x00000000800be934        0x1 ../../../libIPLAY/lib//libos.a(task.o)
 *fill*         0x00000000800be935        0x3 00
 .sbss          0x00000000800be938        0x8 ../../../libIPLAY/lib//libos.a(object.o)
 .sbss          0x00000000800be940       0x24 ../../../libIPLAY/lib//libos.a(memory.o)
 .sbss          0x00000000800be964        0x1 ../../../libIPLAY/lib//libos.a(systimer.o)
 *fill*         0x00000000800be965        0x3 00
 .sbss          0x00000000800be968        0x8 ../../../libIPLAY/lib//libos.a(interrupt.o)
 .sbss          0x00000000800be970        0x8 ../../../libIPLAY/lib//libMcard.a(mcard.o)
 .sbss          0x00000000800be978        0x8 ../../../libIPLAY/lib//libMcard.a(NandFTL.o)
 .sbss          0x00000000800be980        0x8 ../../../libIPLAY/lib//libMcard.a(NandPhyAdv_Mp650.o)
 .sbss          0x00000000800be988        0x8 ../../../libIPLAY/lib//libMcard.a(SD.o)
 .sbss          0x00000000800be990        0xc ../../../libIPLAY/lib//libMcard.a(SdPhy_Mp650.o)
 .sbss          0x00000000800be99c        0x8 ../../../libIPLAY/lib//libMcard.a(Uti.o)
 .sbss          0x00000000800be9a4        0x8 ../../../libIPLAY/lib//libMcard.a(NandIdIdentify.o)
 .sbss          0x00000000800be9ac       0x10 ../../../libIPLAY/lib//libfile.a(dir.o)
 .sbss          0x00000000800be9bc        0x8 ../../../libIPLAY/lib//libfile.a(chain.o)
 .sbss          0x00000000800be9c4        0x8 ../../../libIPLAY/lib//libfile.a(drive.o)
 .sbss          0x00000000800be9cc        0xc ../../../libIPLAY/lib//libfile.a(file.o)
 .sbss          0x00000000800be9d8       0x28 ../../../libIPLAY/lib//libfile.a(Format.o)
 .sbss          0x00000000800bea00        0x8 ../../../libIPLAY/lib//libfile.a(filebrowser.o)
 .sbss          0x00000000800bea08        0x8 ../../../libIPLAY/lib//libperipheral.a(hal_gpio.o)
 .sbss          0x00000000800bea10        0x8 ../../../libIPLAY/lib//libperipheral.a(hal_mmcp.o)
 .sbss          0x00000000800bea18        0x8 ../../../libIPLAY/lib//libsystem.a(SystemConfig.o)
 .sbss          0x00000000800bea20        0x4 ../../../libIPLAY/lib//libsystem.a(SystemMemory.o)
 .sbss          0x00000000800bea24        0x8 ../../../libIPLAY/lib//libsystem.a(SystemDrive.o)
 .sbss          0x00000000800bea2c        0x8 ../../../libIPLAY/lib//libsystem.a(global612.o)
 .sbss          0x00000000800bea34       0x10 ../../../libIPLAY/lib//libsystem.a(ISP_Nand.o)
 .sbss          0x00000000800bea44        0x8 ../../../libIPLAY/lib//libsystem.a(McardDevInfo.o)
 .sbss          0x00000000800bea4c        0xc ../../../libIPLAY/lib//libsystem.a(SetTabFunc.o)
 .sbss          0x00000000800bea58        0x8 ../../lib//libui.a(uigpio.o)
 .sbss          0x00000000800bea60        0x8 ../../lib//libui.a(uiTouchCtrller.o)
 .sbss          0x00000000800bea68        0xc ../../../libIPLAY/lib//libdisplay.a(idu.o)
 .sbss          0x00000000800bea74        0x8 ../../../libIPLAY/lib//libdisplay.a(osd.o)
 .sbss          0x00000000800bea7c        0x8 ../../../libIPLAY/lib//libdisplay.a(osd4.o)
 .sbss          0x00000000800bea84        0x8 ../../../libIPLAY/lib//libdisplay.a(fontdisp.o)
 .sbss          0x00000000800bea8c        0x8 ../../../libIPLAY/lib//libdisplay.a(imgWin.o)
 .sbss          0x00000000800bea94        0x8 ../../../libIPLAY/lib//libdisplay.a(imgString.o)
 .sbss          0x00000000800bea9c        0x8 ../../../libIPLAY/lib//libdisplay.a(IduTable.o)
 .sbss          0x00000000800beaa4        0x8 ../../../libIPLAY/lib//libdisplay.a(Font.o)
 .sbss          0x00000000800beaac       0x14 ../../../libIPLAY/lib//libdisplay.a(scaler_650.o)
 .sbss          0x00000000800beac0        0x8 ../../../libIPLAY/lib//libdisplay.a(hal_ipu.o)
 .sbss          0x00000000800beac8        0x8 ../../../libIPLAY/lib//libsensor.a(sensor_manager.o)
 .sbss          0x00000000800bead0        0x8 ../../../libIPLAY/lib//libsensor.a(sensor_driver_NT99140.o)
 .sbss          0x00000000800bead8        0x8 ../../../libIPLAY/lib//libsensor.a(sensor_NT99140.o)
 .sbss          0x00000000800beae0       0x14 ../../../libIPLAY/lib//libimage.a(jpeg_hal.o)
 .sbss          0x00000000800beaf4       0x20 ../../../libIPLAY/lib//libimage.a(IMG_jpeg.o)
 .sbss          0x00000000800beb14        0x8 ../../../libIPLAY/lib//libmpapi.a(api_main.o)
 .sbss          0x00000000800beb1c        0x8 ../../../libIPLAY/lib//libmpapi.a(mpImageResizeApi.o)
 .sbss          0x00000000800beb24        0x8 ../../../libIPLAY/lib//libmpapi.a(mpImageApi.o)
 .sbss          0x00000000800beb2c        0x8 ../../../libIPLAY/lib//libmpapi.a(mpTrace.o)
 .sbss          0x00000000800beb34        0x8 ../../../libIPLAY/lib//libmpapi.a(mpUtil.o)
 .sbss          0x00000000800beb3c       0x10 ../../../libIPLAY/lib//libmpapi.a(mpImageFileApi.o)
 .sbss          0x00000000800beb4c        0x8 ../../../libIPLAY/lib//libmpapi.a(mpStreamApi.o)
 .sbss          0x00000000800beb54        0x1 ../../../libIPLAY/lib//libjpeg.a(jpeg_decoder.o)
 *fill*         0x00000000800beb55        0x3 00
 .sbss          0x00000000800beb58       0x10 ../../../libIPLAY/lib//libjpeg.a(jmemnobs.o)
 .sbss          0x00000000800beb68        0x8 ../../../libIPLAY/lib//libavipacker.a(AVI_Stream.o)
 .sbss          0x00000000800beb70       0x10 ../../../libIPLAY/lib//libavipacker.a(AVI_packerAPI.o)
 .sbss          0x00000000800beb80        0x8 ../../../libIPLAY/lib//libavipacker.a(AVI_Packer.o)
 .sbss          0x00000000800beb88        0x8 ../../../libIPLAY/lib//libavipacker.a(AVI_Utility.o)
 .sbss          0x00000000800beb90        0x8 ../../../libIPLAY/lib//libutil.a(util_CharString.o)
 .sbss          0x00000000800beb98        0x8 ../../../libIPLAY/lib//libutil.a(util_Utf8ToUni.o)
 .sbss          0x00000000800beba0        0x8 ../../../libIPLAY/lib//libutil.a(util_U16ToU08.o)
 .sbss          0x00000000800beba8        0x8 ../../../libIPLAY/lib//libutil.a(util_Asc2Uni.o)
 .sbss          0x00000000800bebb0        0x8 ../../../libIPLAY/lib//libRecord.a(record_task.o)
 .sbss          0x00000000800bebb8        0x8 ../../../libIPLAY/lib//libtouchctrl.a(tcapi.o)
 .sbss          0x00000000800bebc0       0x14 ../../../libIPLAY/lib//libtouchctrl.a(touchCtrller.o)
 .sbss          0x00000000800bebd4       0x14 ../../../libIPLAY/lib//libtouchctrl.a(tc_gt911.o)
 .sbss          0x00000000800bebe8        0x8 ../../../libIPLAY/lib//libxpg.a(xpg.o)
 .sbss          0x00000000800bebf0        0x8 ../../../libIPLAY/lib//libxpg.a(xpgMovie.o)
 .sbss          0x00000000800bebf8       0x10 ../../../libIPLAY/lib//libxpg.a(xpgUtil.o)
 .sbss          0x00000000800bec08        0x8 ../../../libIPLAY/lib//libxpg.a(xpgSprite.o)
 .sbss          0x00000000800bec10        0x8 ../../../libIPLAY/lib//libxpg.a(xpgRole.o)
 .sbss          0x00000000800bec18        0x8 ../../../libIPLAY/lib//libxpg.a(xpgReader.o)
 .sbss          0x00000000800bec20        0xc ../../../libIPLAY/lib//libxpg.a(xpgDraw.o)
 .sbss          0x00000000800bec2c        0x8 ../../../libIPLAY/lib//libxpg.a(xpgUi.o)
 .sbss          0x00000000800bec34        0x8 ../../../libIPLAY/lib//libos.a(semaphore.o)
 .sbss          0x00000000800bec3c        0x8 ../../../libIPLAY/lib//libdisplay.a(ipu.o)
 .sbss          0x00000000800bec44        0x8 ../../../libIPLAY/lib//libimage.a(jpegEncode.o)
 .sbss          0x00000000800bec4c        0x8 ../../../libIPLAY/lib//libmpapi.a(mpImageRotateApi.o)
 .sbss          0x00000000800bec54        0x8 ../../../libIPLAY/lib//libdemux.a(board.o)

.bss            0x00000000800bec60    0x1c1b4
 *(.bss)
 .bss           0x00000000800bec60      0x290 ../object/ui_timer.o
 .bss           0x00000000800beef0       0x20 ../object/xpgFunc.o
 .bss           0x00000000800bef10       0xa8 ../object/imageplayer.o
 .bss           0x00000000800befb8       0x18 ../object/Setup.o
 .bss           0x00000000800befd0       0x10 ../object/xpgProcSensorData.o
 .bss           0x00000000800befe0     0x1fc0 ../../../libIPLAY/lib//libbios.a(agent.o)
 .bss           0x00000000800c0fa0      0x1b0 ../../../libIPLAY/lib//libos.a(cosmos.o)
 .bss           0x00000000800c1150      0xe80 ../../../libIPLAY/lib//libos.a(object.o)
 .bss           0x00000000800c1fd0      0x280 ../../../libIPLAY/lib//libos.a(mailbox.o)
 .bss           0x00000000800c2250       0x10 ../../../libIPLAY/lib//libos.a(memory.o)
 .bss           0x00000000800c2260      0x510 ../../../libIPLAY/lib//libMcard.a(mcard.o)
 .bss           0x00000000800c2770      0x200 ../../../libIPLAY/lib//libMcard.a(NandPhyAdv_Mp650.o)
 .bss           0x00000000800c2970       0xd0 ../../../libIPLAY/lib//libMcard.a(Uti.o)
 .bss           0x00000000800c2a40     0xb048 ../../../libIPLAY/lib//libfile.a(drive.o)
 .bss           0x00000000800cda88      0x2c0 ../../../libIPLAY/lib//libfile.a(file.o)
 .bss           0x00000000800cdd48     0x6af8 ../../../libIPLAY/lib//libsystem.a(SystemConfig.o)
 .bss           0x00000000800d4840       0x40 ../../../libIPLAY/lib//libsystem.a(global612.o)
 .bss           0x00000000800d4880     0x1000 ../../../libIPLAY/lib//libsystem.a(SetTabFunc.o)
 .bss           0x00000000800d5880       0x18 ../../../libIPLAY/lib//libdisplay.a(osd.o)
 .bss           0x00000000800d5898       0x18 ../../../libIPLAY/lib//libsensor.a(sensor_manager.o)
 .bss           0x00000000800d58b0       0xf0 ../../../libIPLAY/lib//libmpapi.a(mpImageApi.o)
 .bss           0x00000000800d59a0      0x200 ../../../libIPLAY/lib//libavipacker.a(AVI_Stream.o)
 .bss           0x00000000800d5ba0       0x40 ../../../libIPLAY/lib//libtouchctrl.a(tcapi.o)
 .bss           0x00000000800d5be0       0x18 ../../../libIPLAY/lib//libtouchctrl.a(touchCtrller.o)
 *fill*         0x00000000800d5bf8 0xa056d7800000008 00
 COMMON         0x00000000800d5c00      0x154 ../object/xpgFunc.o
                                          0x0 (size before relaxing)
                0x00000000800d5c00                g_OsdLine
                0x00000000800d5d40                xpgUpdateFuncPtr
 *fill*         0x00000000800d5d54        0xc 00
 COMMON         0x00000000800d5d60       0xa0 ../object/Setup.o
                                          0x0 (size before relaxing)
                0x00000000800d5d60                gSetupMenuValue
 COMMON         0x00000000800d5e00      0x280 ../../../libIPLAY/lib//libMcard.a(mcard.o)
                                          0x0 (size before relaxing)
                0x00000000800d5e00                McardMailBuf
 COMMON         0x00000000800d6080      0x160 ../../../libIPLAY/lib//libfile.a(filebrowser.o)
                                          0x0 (size before relaxing)
                0x00000000800d6080                g_stBrowser
 COMMON         0x00000000800d61e0       0x20 ../../../libIPLAY/lib//libsystem.a(global612.o)
                                          0x0 (size before relaxing)
                0x00000000800d61e0                g_sMovieWin
 COMMON         0x00000000800d6200       0x80 ../../../libIPLAY/lib//libsystem.a(ISP_Nand.o)
                                          0x0 (size before relaxing)
                0x00000000800d6200                IspAreaArray
 COMMON         0x00000000800d6280       0x40 ../../../libIPLAY/lib//libdisplay.a(imgWin.o)
                                          0x0 (size before relaxing)
                0x00000000800d6280                sWin
 COMMON         0x00000000800d62c0       0x26 ../../../libIPLAY/lib//libdisplay.a(scaler_650.o)
                                          0x0 (size before relaxing)
                0x00000000800d62c0                g_stScalerPara
 *fill*         0x00000000800d62e6        0xa 00
 COMMON         0x00000000800d62f0       0x40 ../../../libIPLAY/lib//libsensor.a(sensor_manager.o)
                                          0x0 (size before relaxing)
                0x00000000800d62f0                SensorInWin
 COMMON         0x00000000800d6330      0x380 ../../../libIPLAY/lib//libimage.a(jpeg_hal.o)
                                          0x0 (size before relaxing)
                0x00000000800d6330                baSymbolTable
                0x00000000800d6480                g_sJpegStream
                0x00000000800d64c0                g_sJpeg
                0x00000000800d65f0                waBaseTable
                0x00000000800d6670                baMinTable
 COMMON         0x00000000800d66b0        0xe ../../../libIPLAY/lib//libjpeg.a(jpeg_decoder.o)
                                          0x0 (size before relaxing)
                0x00000000800d66b0                charColor
 *fill*         0x00000000800d66be        0x2 00
 COMMON         0x00000000800d66c0       0x14 ../../../libIPLAY/lib//libavipacker.a(AVI_Stream.o)
                                          0x0 (size before relaxing)
                0x00000000800d66c0                st_aviStmCache
 *fill*         0x00000000800d66d4        0xc 00
 COMMON         0x00000000800d66e0       0x50 ../../../libIPLAY/lib//libavipacker.a(AVI_Packer.o)
                                          0x0 (size before relaxing)
                0x00000000800d66e0                avifile
                0x00000000800d6720                wavformatex
 COMMON         0x00000000800d6730       0x34 ../../../libIPLAY/lib//libRecord.a(record_task.o)
                                          0x0 (size before relaxing)
                0x00000000800d6730                fname
                0x00000000800d6750                rec_argument
 *fill*         0x00000000800d6764        0xc 00
 COMMON         0x00000000800d6770     0x45ec ../../../libIPLAY/lib//libxpg.a(xpg.o)
                                          0x0 (size before relaxing)
                0x00000000800d6770                g_stXpgMovie
 *fill*         0x00000000800dad5c        0x4 00
 COMMON         0x00000000800dad60       0x10 ../../../libIPLAY/lib//libxpg.a(xpgUtil.o)
                                          0x0 (size before relaxing)
                0x00000000800dad60                stXpgMovieStream
 COMMON         0x00000000800dad70       0x50 ../../../libIPLAY/lib//libxpg.a(xpgReader.o)
                                          0x0 (size before relaxing)
                0x00000000800dad70                bDataBuf
 COMMON         0x00000000800dadc0       0x20 ../../../libIPLAY/lib//libxpg.a(xpgDraw.o)
                                          0x0 (size before relaxing)
                0x00000000800dadc0                g_sXpgCanvasWin
 COMMON         0x00000000800dade0       0x20 ../../../libIPLAY/lib//libdisplay.a(ipu.o)
                                          0x0 (size before relaxing)
                0x00000000800dade0                trg
                0x00000000800dadf0                src
 COMMON         0x00000000800dae00       0x14 ../../../libIPLAY/lib//libimage.a(jpegEncode.o)
                                          0x0 (size before relaxing)
                0x00000000800dae00                stNoteChain
                0x00000000800dae14                . = ALIGN (0x4)
                0x00000000800dae14                LD_bss_end = .

.stack          0x00000000800dae14     0x2000
                0x00000000800dce14                . = (. + 0x2000)
 *fill*         0x00000000800dae14 0x100002000 00
 *fill*         0x00000000800dce14 0x100000000 00
                0x00000000800dce14                LD_stack = .
                0x00000000800dce14                . = ALIGN (0x4)
                0x00000000800dce14                LD_user_block = .
LOAD ../object/main.o
LOAD ../object/ui_timer.o
LOAD ../object/xpgFunc.o
LOAD ../object/xpgString.o
LOAD ../object/imageplayer.o
LOAD ../object/Setup.o
LOAD ../object/isp.o
LOAD ../object/xpgDriveFunc.o
LOAD ../object/xpgDrawSprite.o
LOAD ../object/xpgBrowser.o
LOAD ../object/platform.o
LOAD ../object/camcorder_func.o
LOAD ../object/WebCam.o
LOAD ../object/UI_FileSystem.o
LOAD ../object/xpgProcSensorData.o
LOAD ../object/xpgVideoFunc.o
LOAD ../object/xpgPhotoFunc.o
START GROUP
LOAD ../../../libIPLAY/lib//libbios.a
LOAD ../../../libIPLAY/lib//libos.a
LOAD ../../../libIPLAY/lib//libMcard.a
LOAD ../../../libIPLAY/lib//libfile.a
LOAD ../../../libIPLAY/lib//libperipheral.a
LOAD ../../../libIPLAY/lib//libsystem.a
LOAD ../../lib//libui.a
LOAD ../../../libIPLAY/lib//libdisplay.a
LOAD ../../../libIPLAY/lib//libsensor.a
LOAD ../../../libIPLAY/lib//libimage.a
LOAD ../../../libIPLAY/lib//libusbotg.a
LOAD ../../../libIPLAY/lib//libmpapi.a
LOAD ../../../libIPLAY/lib//libdemux.a
LOAD ../../../libIPLAY/lib//libjpeg.a
LOAD ../../../libIPLAY/lib//libstream.a
LOAD ../../../libIPLAY/lib//libavipacker.a
LOAD ../../../libIPLAY/lib//libutil.a
LOAD ../../../libIPLAY/lib//libRecord.a
LOAD ../../../libIPLAY/lib//libtouchctrl.a
LOAD ../../../libIPLAY/lib//libutilities.a
LOAD ../../../libIPLAY/lib//libxpg.a
LOAD /cygdrive/e/mips/bin/../lib/gcc-lib/lexra-mpx-elf/3.2.1/../../../../lexra-mpx-elf/lib/soft-float/libstdc++.a
LOAD /cygdrive/e/mips/bin/../lib/gcc-lib/lexra-mpx-elf/3.2.1/../../../../lexra-mpx-elf/lib/soft-float/libc.a
LOAD /cygdrive/e/mips/bin/../lib/gcc-lib/lexra-mpx-elf/3.2.1/../../../../lexra-mpx-elf/lib/soft-float/libm.a
LOAD /cygdrive/e/mips/bin/../lib/gcc-lib/lexra-mpx-elf/3.2.1/soft-float/libgcc.a
END GROUP
OUTPUT(mp612.elf elf32-bigmips)

.reginfo        0x0000000000000000       0x18
 .reginfo       0x0000000000000000       0x18 ../object/main.o

.pdr            0x0000000000000000    0x10e00
 .pdr           0x0000000000000000      0x180 ../object/main.o
 .pdr           0x0000000000000180      0x1e0 ../object/ui_timer.o
 .pdr           0x0000000000000360      0x3a0 ../object/xpgFunc.o
 .pdr           0x0000000000000700       0x60 ../object/xpgString.o
 .pdr           0x0000000000000760      0x1a0 ../object/imageplayer.o
 .pdr           0x0000000000000900      0x180 ../object/Setup.o
 .pdr           0x0000000000000a80       0x80 ../object/isp.o
 .pdr           0x0000000000000b00      0x100 ../object/xpgDriveFunc.o
 .pdr           0x0000000000000c00      0x2e0 ../object/xpgDrawSprite.o
 .pdr           0x0000000000000ee0      0x160 ../object/xpgBrowser.o
 .pdr           0x0000000000001040       0x60 ../object/platform.o
 .pdr           0x00000000000010a0      0x100 ../object/camcorder_func.o
 .pdr           0x00000000000011a0       0xa0 ../object/UI_FileSystem.o
 .pdr           0x0000000000001240      0x7e0 ../object/xpgProcSensorData.o
 .pdr           0x0000000000001a20       0x40 ../object/xpgPhotoFunc.o
 .pdr           0x0000000000001a60       0x60 ../../../libIPLAY/lib//libbios.a(exception.o)
 .pdr           0x0000000000001ac0      0x3e0 ../../../libIPLAY/lib//libbios.a(agent.o)
 .pdr           0x0000000000001ea0      0x4c0 ../../../libIPLAY/lib//libbios.a(hal_Ckg.o)
 .pdr           0x0000000000002360      0x220 ../../../libIPLAY/lib//libbios.a(string.o)
 .pdr           0x0000000000002580      0x140 ../../../libIPLAY/lib//libos.a(cosmos.o)
 .pdr           0x00000000000026c0      0x420 ../../../libIPLAY/lib//libos.a(task.o)
 .pdr           0x0000000000002ae0       0xe0 ../../../libIPLAY/lib//libos.a(object.o)
 .pdr           0x0000000000002bc0       0xe0 ../../../libIPLAY/lib//libos.a(event.o)
 .pdr           0x0000000000002ca0      0x1a0 ../../../libIPLAY/lib//libos.a(mailbox.o)
 .pdr           0x0000000000002e40      0x140 ../../../libIPLAY/lib//libos.a(message.o)
 .pdr           0x0000000000002f80      0x5c0 ../../../libIPLAY/lib//libos.a(memory.o)
 .pdr           0x0000000000003540      0x460 ../../../libIPLAY/lib//libos.a(systimer.o)
 .pdr           0x00000000000039a0      0x160 ../../../libIPLAY/lib//libos.a(interrupt.o)
 .pdr           0x0000000000003b00      0x660 ../../../libIPLAY/lib//libMcard.a(mcard.o)
 .pdr           0x0000000000004160      0x560 ../../../libIPLAY/lib//libMcard.a(NandFTL.o)
 .pdr           0x00000000000046c0      0x520 ../../../libIPLAY/lib//libMcard.a(NandPhyAdv_Mp650.o)
 .pdr           0x0000000000004be0      0x240 ../../../libIPLAY/lib//libMcard.a(SD.o)
 .pdr           0x0000000000004e20      0x1a0 ../../../libIPLAY/lib//libMcard.a(SdPhy_Mp650.o)
 .pdr           0x0000000000004fc0      0x280 ../../../libIPLAY/lib//libMcard.a(Uti.o)
 .pdr           0x0000000000005240       0x40 ../../../libIPLAY/lib//libMcard.a(NandIdIdentify.o)
 .pdr           0x0000000000005280      0x4a0 ../../../libIPLAY/lib//libfile.a(dir.o)
 .pdr           0x0000000000005720      0x380 ../../../libIPLAY/lib//libfile.a(chain.o)
 .pdr           0x0000000000005aa0      0x4e0 ../../../libIPLAY/lib//libfile.a(drive.o)
 .pdr           0x0000000000005f80      0xa60 ../../../libIPLAY/lib//libfile.a(file.o)
 .pdr           0x00000000000069e0      0x220 ../../../libIPLAY/lib//libfile.a(Format.o)
 .pdr           0x0000000000006c00      0x340 ../../../libIPLAY/lib//libfile.a(filebrowser.o)
 .pdr           0x0000000000006f40      0x340 ../../../libIPLAY/lib//libperipheral.a(hal_gpio.o)
 .pdr           0x0000000000007280      0x1e0 ../../../libIPLAY/lib//libperipheral.a(hal_mmcp.o)
 .pdr           0x0000000000007460      0x260 ../../../libIPLAY/lib//libperipheral.a(hal_rtc.o)
 .pdr           0x00000000000076c0      0x1c0 ../../../libIPLAY/lib//libsystem.a(SystemConfig.o)
 .pdr           0x0000000000007880       0xe0 ../../../libIPLAY/lib//libsystem.a(SystemMemory.o)
 .pdr           0x0000000000007960      0x240 ../../../libIPLAY/lib//libsystem.a(SystemDrive.o)
 .pdr           0x0000000000007ba0      0x3a0 ../../../libIPLAY/lib//libsystem.a(global612.o)
 .pdr           0x0000000000007f40      0x440 ../../../libIPLAY/lib//libsystem.a(ISP_Nand.o)
 .pdr           0x0000000000008380       0x40 ../../../libIPLAY/lib//libsystem.a(McardDevInfo.o)
 .pdr           0x00000000000083c0      0x1a0 ../../../libIPLAY/lib//libsystem.a(SetTabFunc.o)
 .pdr           0x0000000000008560       0x80 ../../lib//libui.a(uigpio.o)
 .pdr           0x00000000000085e0      0x240 ../../lib//libui.a(uiTouchCtrller.o)
 .pdr           0x0000000000008820      0x4e0 ../../../libIPLAY/lib//libdisplay.a(idu.o)
 .pdr           0x0000000000008d00      0x1e0 ../../../libIPLAY/lib//libdisplay.a(osd.o)
 .pdr           0x0000000000008ee0       0x80 ../../../libIPLAY/lib//libdisplay.a(osd4.o)
 .pdr           0x0000000000008f60      0x320 ../../../libIPLAY/lib//libdisplay.a(fontdisp.o)
 .pdr           0x0000000000009280      0x2e0 ../../../libIPLAY/lib//libdisplay.a(imgWin.o)
 .pdr           0x0000000000009560      0x140 ../../../libIPLAY/lib//libdisplay.a(imgString.o)
 .pdr           0x00000000000096a0       0x60 ../../../libIPLAY/lib//libdisplay.a(Font.o)
 .pdr           0x0000000000009700      0x560 ../../../libIPLAY/lib//libdisplay.a(scaler_650.o)
 .pdr           0x0000000000009c60      0x260 ../../../libIPLAY/lib//libdisplay.a(hal_ipu.o)
 .pdr           0x0000000000009ec0      0x3c0 ../../../libIPLAY/lib//libsensor.a(sensor_manager.o)
 .pdr           0x000000000000a280      0x4e0 ../../../libIPLAY/lib//libsensor.a(sensor_driver_NT99140.o)
 .pdr           0x000000000000a760      0x260 ../../../libIPLAY/lib//libsensor.a(sensor_NT99140.o)
 .pdr           0x000000000000a9c0      0x620 ../../../libIPLAY/lib//libimage.a(jpeg_hal.o)
 .pdr           0x000000000000afe0      0x140 ../../../libIPLAY/lib//libimage.a(IMG_jpeg.o)
 .pdr           0x000000000000b120      0x540 ../../../libIPLAY/lib//libmpapi.a(api_main.o)
 .pdr           0x000000000000b660      0x100 ../../../libIPLAY/lib//libmpapi.a(mpImageResizeApi.o)
 .pdr           0x000000000000b760      0x360 ../../../libIPLAY/lib//libmpapi.a(mpImageApi.o)
 .pdr           0x000000000000bac0      0x320 ../../../libIPLAY/lib//libmpapi.a(mpTrace.o)
 .pdr           0x000000000000bde0      0x100 ../../../libIPLAY/lib//libmpapi.a(mpUtil.o)
 .pdr           0x000000000000bee0      0x420 ../../../libIPLAY/lib//libmpapi.a(mpImageFileApi.o)
 .pdr           0x000000000000c300      0x340 ../../../libIPLAY/lib//libmpapi.a(mpStreamApi.o)
 .pdr           0x000000000000c640       0x60 ../../../libIPLAY/lib//libjpeg.a(jpeg_decoder.o)
 .pdr           0x000000000000c6a0       0xe0 ../../../libIPLAY/lib//libjpeg.a(jdapistd.o)
 .pdr           0x000000000000c780      0x180 ../../../libIPLAY/lib//libjpeg.a(jdapimin.o)
 .pdr           0x000000000000c900       0xc0 ../../../libIPLAY/lib//libjpeg.a(jdatasrc.o)
 .pdr           0x000000000000c9c0      0x100 ../../../libIPLAY/lib//libjpeg.a(jdmaster.o)
 .pdr           0x000000000000cac0      0x1e0 ../../../libIPLAY/lib//libjpeg.a(jmemmgr.o)
 .pdr           0x000000000000cca0      0x280 ../../../libIPLAY/lib//libjpeg.a(jdmarker.o)
 .pdr           0x000000000000cf20      0x160 ../../../libIPLAY/lib//libjpeg.a(jdinput.o)
 .pdr           0x000000000000d080       0x80 ../../../libIPLAY/lib//libjpeg.a(jcomapi.o)
 .pdr           0x000000000000d100       0xe0 ../../../libIPLAY/lib//libjpeg.a(jdphuff.o)
 .pdr           0x000000000000d1e0      0x120 ../../../libIPLAY/lib//libjpeg.a(jdcoefct.o)
 .pdr           0x000000000000d300       0xe0 ../../../libIPLAY/lib//libjpeg.a(jdhuff.o)
 .pdr           0x000000000000d3e0       0xa0 ../../../libIPLAY/lib//libjpeg.a(jutils.o)
 .pdr           0x000000000000d480       0x60 ../../../libIPLAY/lib//libjpeg.a(jdpostct.o)
 .pdr           0x000000000000d4e0       0x40 ../../../libIPLAY/lib//libjpeg.a(jddctmgr.o)
 .pdr           0x000000000000d520      0x100 ../../../libIPLAY/lib//libjpeg.a(jdmainct.o)
 .pdr           0x000000000000d620      0x120 ../../../libIPLAY/lib//libjpeg.a(jdcolor.o)
 .pdr           0x000000000000d740      0x140 ../../../libIPLAY/lib//libjpeg.a(jdsample.o)
 .pdr           0x000000000000d880      0x140 ../../../libIPLAY/lib//libjpeg.a(jmemnobs.o)
 .pdr           0x000000000000d9c0       0x60 ../../../libIPLAY/lib//libjpeg.a(jidctred.o)
 .pdr           0x000000000000da20       0x20 ../../../libIPLAY/lib//libjpeg.a(jidctfst.o)
 .pdr           0x000000000000da40       0xc0 ../../../libIPLAY/lib//libjpeg.a(jerror.o)
 .pdr           0x000000000000db00       0x80 ../../../libIPLAY/lib//libjpeg.a(asm_jdphuff.o)
 .pdr           0x000000000000db80       0x20 ../../../libIPLAY/lib//libjpeg.a(asm_jdcolor.o)
 .pdr           0x000000000000dba0      0x180 ../../../libIPLAY/lib//libavipacker.a(AVI_Stream.o)
 .pdr           0x000000000000dd20      0x120 ../../../libIPLAY/lib//libavipacker.a(AVI_packerAPI.o)
 .pdr           0x000000000000de40      0x160 ../../../libIPLAY/lib//libavipacker.a(AVI_Packer.o)
 .pdr           0x000000000000dfa0      0x160 ../../../libIPLAY/lib//libavipacker.a(AVI_Utility.o)
 .pdr           0x000000000000e100      0x4c0 ../../../libIPLAY/lib//libutil.a(util_CharString.o)
 .pdr           0x000000000000e5c0       0x40 ../../../libIPLAY/lib//libutil.a(util_Utf8ToUni.o)
 .pdr           0x000000000000e600       0x20 ../../../libIPLAY/lib//libutil.a(util_U16ToU08.o)
 .pdr           0x000000000000e620       0x20 ../../../libIPLAY/lib//libutil.a(util_Asc2Uni.o)
 .pdr           0x000000000000e640      0x1c0 ../../../libIPLAY/lib//libRecord.a(record_task.o)
 .pdr           0x000000000000e800      0x160 ../../../libIPLAY/lib//libtouchctrl.a(tcapi.o)
 .pdr           0x000000000000e960      0x1a0 ../../../libIPLAY/lib//libtouchctrl.a(touchCtrller.o)
 .pdr           0x000000000000eb00      0x2c0 ../../../libIPLAY/lib//libtouchctrl.a(tc_gt911.o)
 .pdr           0x000000000000edc0      0x180 ../../../libIPLAY/lib//libxpg.a(xpg.o)
 .pdr           0x000000000000ef40       0xe0 ../../../libIPLAY/lib//libxpg.a(xpgMovie.o)
 .pdr           0x000000000000f020      0x2a0 ../../../libIPLAY/lib//libxpg.a(xpgUtil.o)
 .pdr           0x000000000000f2c0      0x200 ../../../libIPLAY/lib//libxpg.a(xpgSprite.o)
 .pdr           0x000000000000f4c0       0xc0 ../../../libIPLAY/lib//libxpg.a(xpgRole.o)
 .pdr           0x000000000000f580      0x200 ../../../libIPLAY/lib//libxpg.a(xpgReader.o)
 .pdr           0x000000000000f780      0x160 ../../../libIPLAY/lib//libxpg.a(xpgDraw.o)
 .pdr           0x000000000000f8e0       0x60 ../../../libIPLAY/lib//libxpg.a(xpgUi.o)
 .pdr           0x000000000000f940       0x20 /cygdrive/e/mips/bin/../lib/gcc-lib/lexra-mpx-elf/3.2.1/../../../../lexra-mpx-elf/lib/soft-float/libc.a(memcmp.o)
 .pdr           0x000000000000f960       0x20 /cygdrive/e/mips/bin/../lib/gcc-lib/lexra-mpx-elf/3.2.1/../../../../lexra-mpx-elf/lib/soft-float/libc.a(memcpy.o)
 .pdr           0x000000000000f980       0x20 /cygdrive/e/mips/bin/../lib/gcc-lib/lexra-mpx-elf/3.2.1/../../../../lexra-mpx-elf/lib/soft-float/libc.a(memset.o)
 .pdr           0x000000000000f9a0       0x40 /cygdrive/e/mips/bin/../lib/gcc-lib/lexra-mpx-elf/3.2.1/../../../../lexra-mpx-elf/lib/soft-float/libc.a(setjmp.o)
 .pdr           0x000000000000f9e0       0x40 /cygdrive/e/mips/bin/../lib/gcc-lib/lexra-mpx-elf/3.2.1/../../../../lexra-mpx-elf/lib/soft-float/libc.a(sprintf.o)
 .pdr           0x000000000000fa20       0x20 /cygdrive/e/mips/bin/../lib/gcc-lib/lexra-mpx-elf/3.2.1/../../../../lexra-mpx-elf/lib/soft-float/libc.a(strcat.o)
 .pdr           0x000000000000fa40       0x20 /cygdrive/e/mips/bin/../lib/gcc-lib/lexra-mpx-elf/3.2.1/../../../../lexra-mpx-elf/lib/soft-float/libc.a(strchr.o)
 .pdr           0x000000000000fa60       0x20 /cygdrive/e/mips/bin/../lib/gcc-lib/lexra-mpx-elf/3.2.1/../../../../lexra-mpx-elf/lib/soft-float/libc.a(strcpy.o)
 .pdr           0x000000000000fa80       0x20 /cygdrive/e/mips/bin/../lib/gcc-lib/lexra-mpx-elf/3.2.1/../../../../lexra-mpx-elf/lib/soft-float/libc.a(strlen.o)
 .pdr           0x000000000000faa0       0x20 /cygdrive/e/mips/bin/../lib/gcc-lib/lexra-mpx-elf/3.2.1/../../../../lexra-mpx-elf/lib/soft-float/libc.a(toupper.o)
 .pdr           0x000000000000fac0       0xc0 /cygdrive/e/mips/bin/../lib/gcc-lib/lexra-mpx-elf/3.2.1/../../../../lexra-mpx-elf/lib/soft-float/libc.a(vfprintf.o)
 .pdr           0x000000000000fb80       0x40 /cygdrive/e/mips/bin/../lib/gcc-lib/lexra-mpx-elf/3.2.1/../../../../lexra-mpx-elf/lib/soft-float/libc.a(vsnprintf.o)
 .pdr           0x000000000000fbc0       0x20 /cygdrive/e/mips/bin/../lib/gcc-lib/lexra-mpx-elf/3.2.1/../../../../lexra-mpx-elf/lib/soft-float/libc.a(wsetup.o)
 .pdr           0x000000000000fbe0       0x40 /cygdrive/e/mips/bin/../lib/gcc-lib/lexra-mpx-elf/3.2.1/../../../../lexra-mpx-elf/lib/soft-float/libc.a(dtoa.o)
 .pdr           0x000000000000fc20       0x20 /cygdrive/e/mips/bin/../lib/gcc-lib/lexra-mpx-elf/3.2.1/../../../../lexra-mpx-elf/lib/soft-float/libc.a(fflush.o)
 .pdr           0x000000000000fc40       0xc0 /cygdrive/e/mips/bin/../lib/gcc-lib/lexra-mpx-elf/3.2.1/../../../../lexra-mpx-elf/lib/soft-float/libc.a(findfp.o)
 .pdr           0x000000000000fd00       0x40 /cygdrive/e/mips/bin/../lib/gcc-lib/lexra-mpx-elf/3.2.1/../../../../lexra-mpx-elf/lib/soft-float/libc.a(freer.o)
 .pdr           0x000000000000fd40       0x20 /cygdrive/e/mips/bin/../lib/gcc-lib/lexra-mpx-elf/3.2.1/../../../../lexra-mpx-elf/lib/soft-float/libc.a(fvwrite.o)
 .pdr           0x000000000000fd60       0x20 /cygdrive/e/mips/bin/../lib/gcc-lib/lexra-mpx-elf/3.2.1/../../../../lexra-mpx-elf/lib/soft-float/libc.a(fwalk.o)
 .pdr           0x000000000000fd80       0xa0 /cygdrive/e/mips/bin/../lib/gcc-lib/lexra-mpx-elf/3.2.1/../../../../lexra-mpx-elf/lib/soft-float/libc.a(locale.o)
 .pdr           0x000000000000fe20       0x20 /cygdrive/e/mips/bin/../lib/gcc-lib/lexra-mpx-elf/3.2.1/../../../../lexra-mpx-elf/lib/soft-float/libc.a(makebuf.o)
 .pdr           0x000000000000fe40       0x40 /cygdrive/e/mips/bin/../lib/gcc-lib/lexra-mpx-elf/3.2.1/../../../../lexra-mpx-elf/lib/soft-float/libc.a(mallocr.o)
 .pdr           0x000000000000fe80       0x20 /cygdrive/e/mips/bin/../lib/gcc-lib/lexra-mpx-elf/3.2.1/../../../../lexra-mpx-elf/lib/soft-float/libc.a(mbtowc_r.o)
 .pdr           0x000000000000fea0       0x20 /cygdrive/e/mips/bin/../lib/gcc-lib/lexra-mpx-elf/3.2.1/../../../../lexra-mpx-elf/lib/soft-float/libc.a(memchr.o)
 .pdr           0x000000000000fec0       0x20 /cygdrive/e/mips/bin/../lib/gcc-lib/lexra-mpx-elf/3.2.1/../../../../lexra-mpx-elf/lib/soft-float/libc.a(memmove.o)
 .pdr           0x000000000000fee0       0x40 /cygdrive/e/mips/bin/../lib/gcc-lib/lexra-mpx-elf/3.2.1/../../../../lexra-mpx-elf/lib/soft-float/libc.a(mlock.o)
 .pdr           0x000000000000ff20      0x220 /cygdrive/e/mips/bin/../lib/gcc-lib/lexra-mpx-elf/3.2.1/../../../../lexra-mpx-elf/lib/soft-float/libc.a(mprec.o)
 .pdr           0x0000000000010140       0x20 /cygdrive/e/mips/bin/../lib/gcc-lib/lexra-mpx-elf/3.2.1/../../../../lexra-mpx-elf/lib/soft-float/libc.a(reallocr.o)
 .pdr           0x0000000000010160       0x20 /cygdrive/e/mips/bin/../lib/gcc-lib/lexra-mpx-elf/3.2.1/../../../../lexra-mpx-elf/lib/soft-float/libc.a(s_isinf.o)
 .pdr           0x0000000000010180       0x20 /cygdrive/e/mips/bin/../lib/gcc-lib/lexra-mpx-elf/3.2.1/../../../../lexra-mpx-elf/lib/soft-float/libc.a(s_isnan.o)
 .pdr           0x00000000000101a0       0x20 /cygdrive/e/mips/bin/../lib/gcc-lib/lexra-mpx-elf/3.2.1/../../../../lexra-mpx-elf/lib/soft-float/libc.a(sbrkr.o)
 .pdr           0x00000000000101c0       0x80 /cygdrive/e/mips/bin/../lib/gcc-lib/lexra-mpx-elf/3.2.1/../../../../lexra-mpx-elf/lib/soft-float/libc.a(stdio.o)
 .pdr           0x0000000000010240       0x20 /cygdrive/e/mips/bin/../lib/gcc-lib/lexra-mpx-elf/3.2.1/../../../../lexra-mpx-elf/lib/soft-float/libc.a(strcmp.o)
 .pdr           0x0000000000010260       0x20 /cygdrive/e/mips/bin/../lib/gcc-lib/lexra-mpx-elf/3.2.1/../../../../lexra-mpx-elf/lib/soft-float/libc.a(writer.o)
 .pdr           0x0000000000010280       0x20 /cygdrive/e/mips/bin/../lib/gcc-lib/lexra-mpx-elf/3.2.1/../../../../lexra-mpx-elf/lib/soft-float/libc.a(callocr.o)
 .pdr           0x00000000000102a0       0x20 /cygdrive/e/mips/bin/../lib/gcc-lib/lexra-mpx-elf/3.2.1/../../../../lexra-mpx-elf/lib/soft-float/libc.a(closer.o)
 .pdr           0x00000000000102c0       0x20 /cygdrive/e/mips/bin/../lib/gcc-lib/lexra-mpx-elf/3.2.1/../../../../lexra-mpx-elf/lib/soft-float/libc.a(fstatr.o)
 .pdr           0x00000000000102e0       0x20 /cygdrive/e/mips/bin/../lib/gcc-lib/lexra-mpx-elf/3.2.1/../../../../lexra-mpx-elf/lib/soft-float/libc.a(lseekr.o)
 .pdr           0x0000000000010300       0x20 /cygdrive/e/mips/bin/../lib/gcc-lib/lexra-mpx-elf/3.2.1/../../../../lexra-mpx-elf/lib/soft-float/libc.a(readr.o)
 .pdr           0x0000000000010320       0x60 /cygdrive/e/mips/bin/../lib/gcc-lib/lexra-mpx-elf/3.2.1/../../../../lexra-mpx-elf/lib/soft-float/libc.a(reent.o)
 .pdr           0x0000000000010380       0x40 /cygdrive/e/mips/bin/../lib/gcc-lib/lexra-mpx-elf/3.2.1/soft-float/libgcc.a(_udivdi3.o)
 .pdr           0x00000000000103c0       0x40 /cygdrive/e/mips/bin/../lib/gcc-lib/lexra-mpx-elf/3.2.1/soft-float/libgcc.a(_umoddi3.o)
 .pdr           0x0000000000010400       0x60 /cygdrive/e/mips/bin/../lib/gcc-lib/lexra-mpx-elf/3.2.1/soft-float/libgcc.a(_addsub_df.o)
 .pdr           0x0000000000010460       0x40 /cygdrive/e/mips/bin/../lib/gcc-lib/lexra-mpx-elf/3.2.1/soft-float/libgcc.a(_mul_df.o)
 .pdr           0x00000000000104a0       0x40 /cygdrive/e/mips/bin/../lib/gcc-lib/lexra-mpx-elf/3.2.1/soft-float/libgcc.a(_div_df.o)
 .pdr           0x00000000000104e0       0x20 /cygdrive/e/mips/bin/../lib/gcc-lib/lexra-mpx-elf/3.2.1/soft-float/libgcc.a(_compare_df.o)
 .pdr           0x0000000000010500       0x20 /cygdrive/e/mips/bin/../lib/gcc-lib/lexra-mpx-elf/3.2.1/soft-float/libgcc.a(_si_to_df.o)
 .pdr           0x0000000000010520       0x20 /cygdrive/e/mips/bin/../lib/gcc-lib/lexra-mpx-elf/3.2.1/soft-float/libgcc.a(_df_to_si.o)
 .pdr           0x0000000000010540       0x20 /cygdrive/e/mips/bin/../lib/gcc-lib/lexra-mpx-elf/3.2.1/soft-float/libgcc.a(_pack_df.o)
 .pdr           0x0000000000010560       0x20 /cygdrive/e/mips/bin/../lib/gcc-lib/lexra-mpx-elf/3.2.1/soft-float/libgcc.a(_unpack_df.o)
 .pdr           0x0000000000010580       0x20 /cygdrive/e/mips/bin/../lib/gcc-lib/lexra-mpx-elf/3.2.1/soft-float/libgcc.a(_fpcmp_parts_df.o)
 .pdr           0x00000000000105a0       0x80 ../../../libIPLAY/lib//libbios.a(startup.o)
 .pdr           0x0000000000010620      0x320 ../../../libIPLAY/lib//libbios.a(MP650_uart.o)
 .pdr           0x0000000000010940       0xc0 ../../../libIPLAY/lib//libos.a(semaphore.o)
 .pdr           0x0000000000010a00       0xa0 ../../../libIPLAY/lib//libdisplay.a(ipu.o)
 .pdr           0x0000000000010aa0      0x160 ../../../libIPLAY/lib//libimage.a(jpegEncode.o)
 .pdr           0x0000000000010c00       0x60 ../../../libIPLAY/lib//libmpapi.a(mpImageRotateApi.o)
 .pdr           0x0000000000010c60      0x1a0 ../../../libIPLAY/lib//libdemux.a(board.o)

.mdebug.abi32   0x0000000000000000        0x0

.debug_abbrev   0x0000000000000000     0x3b8e
 .debug_abbrev  0x0000000000000000      0x493 ../object/main.o
 .debug_abbrev  0x0000000000000493      0x3fa ../object/ui_timer.o
 .debug_abbrev  0x000000000000088d      0x424 ../object/xpgFunc.o
 .debug_abbrev  0x0000000000000cb1      0x2b2 ../object/xpgString.o
 .debug_abbrev  0x0000000000000f63      0x424 ../object/imageplayer.o
 .debug_abbrev  0x0000000000001387      0x39f ../object/Setup.o
 .debug_abbrev  0x0000000000001726      0x3af ../object/isp.o
 .debug_abbrev  0x0000000000001ad5      0x376 ../object/xpgDriveFunc.o
 .debug_abbrev  0x0000000000001e4b      0x3c9 ../object/xpgDrawSprite.o
 .debug_abbrev  0x0000000000002214      0x3d5 ../object/xpgBrowser.o
 .debug_abbrev  0x00000000000025e9      0x294 ../object/platform.o
 .debug_abbrev  0x000000000000287d      0x367 ../object/camcorder_func.o
 .debug_abbrev  0x0000000000002be4      0x262 ../object/WebCam.o
 .debug_abbrev  0x0000000000002e46      0x319 ../object/UI_FileSystem.o
 .debug_abbrev  0x000000000000315f      0x476 ../object/xpgProcSensorData.o
 .debug_abbrev  0x00000000000035d5      0x2a4 ../object/xpgVideoFunc.o
 .debug_abbrev  0x0000000000003879      0x315 ../object/xpgPhotoFunc.o

.debug_info     0x0000000000000000   0x1395d6
 .debug_info    0x0000000000000000    0x14dce ../object/main.o
 .debug_info    0x0000000000014dce     0xe170 ../object/ui_timer.o
 .debug_info    0x0000000000022f3e    0x1503c ../object/xpgFunc.o
 .debug_info    0x0000000000037f7a     0xf6ea ../object/xpgString.o
 .debug_info    0x0000000000047664    0x13d7c ../object/imageplayer.o
 .debug_info    0x000000000005b3e0    0x14cf0 ../object/Setup.o
 .debug_info    0x00000000000700d0    0x12c14 ../object/isp.o
 .debug_info    0x0000000000082ce4    0x10211 ../object/xpgDriveFunc.o
 .debug_info    0x0000000000092ef5    0x14e40 ../object/xpgDrawSprite.o
 .debug_info    0x00000000000a7d35    0x13f67 ../object/xpgBrowser.o
 .debug_info    0x00000000000bbc9c     0xfba8 ../object/platform.o
 .debug_info    0x00000000000cb844    0x13d5f ../object/camcorder_func.o
 .debug_info    0x00000000000df5a3     0xfbda ../object/WebCam.o
 .debug_info    0x00000000000ef17d     0xf5e3 ../object/UI_FileSystem.o
 .debug_info    0x00000000000fe760    0x174fe ../object/xpgProcSensorData.o
 .debug_info    0x0000000000115c5e    0x13aa5 ../object/xpgVideoFunc.o
 .debug_info    0x0000000000129703     0xfed3 ../object/xpgPhotoFunc.o

.debug_line     0x0000000000000000    0x106e7
 .debug_line    0x0000000000000000     0x1403 ../object/main.o
 .debug_line    0x0000000000001403      0x9b7 ../object/ui_timer.o
 .debug_line    0x0000000000001dba     0x11dd ../object/xpgFunc.o
 .debug_line    0x0000000000002f97      0xbe3 ../object/xpgString.o
 .debug_line    0x0000000000003b7a      0xf81 ../object/imageplayer.o
 .debug_line    0x0000000000004afb      0xfd3 ../object/Setup.o
 .debug_line    0x0000000000005ace      0xdf9 ../object/isp.o
 .debug_line    0x00000000000068c7      0xd7a ../object/xpgDriveFunc.o
 .debug_line    0x0000000000007641     0x120b ../object/xpgDrawSprite.o
 .debug_line    0x000000000000884c     0x100f ../object/xpgBrowser.o
 .debug_line    0x000000000000985b      0xccc ../object/platform.o
 .debug_line    0x000000000000a527     0x101a ../object/camcorder_func.o
 .debug_line    0x000000000000b541      0xc23 ../object/WebCam.o
 .debug_line    0x000000000000c164      0xc45 ../object/UI_FileSystem.o
 .debug_line    0x000000000000cda9     0x1dd1 ../object/xpgProcSensorData.o
 .debug_line    0x000000000000eb7a      0xed9 ../object/xpgVideoFunc.o
 .debug_line    0x000000000000fa53      0xc94 ../object/xpgPhotoFunc.o

.debug_frame    0x0000000000000000     0x1b00
 .debug_frame   0x0000000000000000      0x198 ../object/main.o
 .debug_frame   0x0000000000000198      0x1f8 ../object/ui_timer.o
 .debug_frame   0x0000000000000390      0x374 ../object/xpgFunc.o
 .debug_frame   0x0000000000000704       0x64 ../object/xpgString.o
 .debug_frame   0x0000000000000768      0x198 ../object/imageplayer.o
 .debug_frame   0x0000000000000900      0x18c ../object/Setup.o
 .debug_frame   0x0000000000000a8c       0x90 ../object/isp.o
 .debug_frame   0x0000000000000b1c      0x10c ../object/xpgDriveFunc.o
 .debug_frame   0x0000000000000c28      0x2e4 ../object/xpgDrawSprite.o
 .debug_frame   0x0000000000000f0c      0x16c ../object/xpgBrowser.o
 .debug_frame   0x0000000000001078       0x6c ../object/platform.o
 .debug_frame   0x00000000000010e4      0x110 ../object/camcorder_func.o
 .debug_frame   0x00000000000011f4       0x10 ../object/WebCam.o
 .debug_frame   0x0000000000001204       0xb4 ../object/UI_FileSystem.o
 .debug_frame   0x00000000000012b8      0x7e8 ../object/xpgProcSensorData.o
 .debug_frame   0x0000000000001aa0       0x10 ../object/xpgVideoFunc.o
 .debug_frame   0x0000000000001ab0       0x50 ../object/xpgPhotoFunc.o

.debug_pubnames
                0x0000000000000000     0x1694
 .debug_pubnames
                0x0000000000000000       0x60 ../object/main.o
 .debug_pubnames
                0x0000000000000060      0x114 ../object/ui_timer.o
 .debug_pubnames
                0x0000000000000174      0x368 ../object/xpgFunc.o
 .debug_pubnames
                0x00000000000004dc       0x6f ../object/xpgString.o
 .debug_pubnames
                0x000000000000054b      0x165 ../object/imageplayer.o
 .debug_pubnames
                0x00000000000006b0      0x173 ../object/Setup.o
 .debug_pubnames
                0x0000000000000823       0x79 ../object/isp.o
 .debug_pubnames
                0x000000000000089c       0xc9 ../object/xpgDriveFunc.o
 .debug_pubnames
                0x0000000000000965      0x29f ../object/xpgDrawSprite.o
 .debug_pubnames
                0x0000000000000c04      0x122 ../object/xpgBrowser.o
 .debug_pubnames
                0x0000000000000d26       0x5f ../object/platform.o
 .debug_pubnames
                0x0000000000000d85       0xeb ../object/camcorder_func.o
 .debug_pubnames
                0x0000000000000e70       0x25 ../object/WebCam.o
 .debug_pubnames
                0x0000000000000e95       0xb3 ../object/UI_FileSystem.o
 .debug_pubnames
                0x0000000000000f48      0x6d5 ../object/xpgProcSensorData.o
 .debug_pubnames
                0x000000000000161d       0x25 ../object/xpgVideoFunc.o
 .debug_pubnames
                0x0000000000001642       0x52 ../object/xpgPhotoFunc.o

.debug_aranges  0x0000000000000000      0x1e0
 .debug_aranges
                0x0000000000000000       0x20 ../object/main.o
 .debug_aranges
                0x0000000000000020       0x20 ../object/ui_timer.o
 .debug_aranges
                0x0000000000000040       0x20 ../object/xpgFunc.o
 .debug_aranges
                0x0000000000000060       0x20 ../object/xpgString.o
 .debug_aranges
                0x0000000000000080       0x20 ../object/imageplayer.o
 .debug_aranges
                0x00000000000000a0       0x20 ../object/Setup.o
 .debug_aranges
                0x00000000000000c0       0x20 ../object/isp.o
 .debug_aranges
                0x00000000000000e0       0x20 ../object/xpgDriveFunc.o
 .debug_aranges
                0x0000000000000100       0x20 ../object/xpgDrawSprite.o
 .debug_aranges
                0x0000000000000120       0x20 ../object/xpgBrowser.o
 .debug_aranges
                0x0000000000000140       0x20 ../object/platform.o
 .debug_aranges
                0x0000000000000160       0x20 ../object/camcorder_func.o
 .debug_aranges
                0x0000000000000180       0x20 ../object/UI_FileSystem.o
 .debug_aranges
                0x00000000000001a0       0x20 ../object/xpgProcSensorData.o
 .debug_aranges
                0x00000000000001c0       0x20 ../object/xpgPhotoFunc.o

.debug_str      0x0000000000000000    0x14955
 .debug_str     0x0000000000000000    0x11074 ../object/main.o
                                      0x1269d (size before relaxing)
 .debug_str     0x0000000000011074      0x27c ../object/ui_timer.o
                                       0xdb1c (size before relaxing)
 .debug_str     0x00000000000112f0     0x116c ../object/xpgFunc.o
                                      0x1338b (size before relaxing)
 .debug_str     0x000000000001245c       0x81 ../object/xpgString.o
                                       0xe652 (size before relaxing)
 .debug_str     0x00000000000124dd      0x2f5 ../object/imageplayer.o
                                      0x111d5 (size before relaxing)
 .debug_str     0x00000000000127d2      0x6d3 ../object/Setup.o
                                      0x11f3c (size before relaxing)
 .debug_str     0x0000000000012ea5       0x6c ../object/isp.o
                                      0x10566 (size before relaxing)
 .debug_str     0x0000000000012f11       0xd4 ../object/xpgDriveFunc.o
                                       0xf77f (size before relaxing)
 .debug_str     0x0000000000012fe5      0x3ab ../object/xpgDrawSprite.o
                                      0x116dc (size before relaxing)
 .debug_str     0x0000000000013390      0x147 ../object/xpgBrowser.o
                                      0x1199b (size before relaxing)
 .debug_str     0x00000000000134d7       0x36 ../object/platform.o
                                       0xed8f (size before relaxing)
 .debug_str     0x000000000001350d      0x596 ../object/camcorder_func.o
                                      0x11cea (size before relaxing)
 .debug_str     0x0000000000013aa3       0x13 ../object/WebCam.o
                                       0xf51d (size before relaxing)
 .debug_str     0x0000000000013ab6      0x14d ../object/UI_FileSystem.o
                                       0xf141 (size before relaxing)
 .debug_str     0x0000000000013c03      0xcd0 ../object/xpgProcSensorData.o
                                      0x12df6 (size before relaxing)
 .debug_str     0x00000000000148d3       0x19 ../object/xpgVideoFunc.o
                                      0x1171e (size before relaxing)
 .debug_str     0x00000000000148ec       0x69 ../object/xpgPhotoFunc.o
                                       0xf807 (size before relaxing)

.rel.dyn

.stab           0x0000000000000000    0x18b1c
 .stab          0x0000000000000000      0x33c /cygdrive/e/mips/bin/../lib/gcc-lib/lexra-mpx-elf/3.2.1/../../../../lexra-mpx-elf/lib/soft-float/libc.a(memcmp.o)
 .stab          0x000000000000033c      0x45c /cygdrive/e/mips/bin/../lib/gcc-lib/lexra-mpx-elf/3.2.1/../../../../lexra-mpx-elf/lib/soft-float/libc.a(memcpy.o)
                                        0x468 (size before relaxing)
 .stab          0x0000000000000798      0x408 /cygdrive/e/mips/bin/../lib/gcc-lib/lexra-mpx-elf/3.2.1/../../../../lexra-mpx-elf/lib/soft-float/libc.a(memset.o)
                                        0x414 (size before relaxing)
 .stab          0x0000000000000ba0       0xb4 /cygdrive/e/mips/bin/../lib/gcc-lib/lexra-mpx-elf/3.2.1/../../../../lexra-mpx-elf/lib/soft-float/libc.a(setjmp.o)
                                         0xc0 (size before relaxing)
 .stab          0x0000000000000c54      0x648 /cygdrive/e/mips/bin/../lib/gcc-lib/lexra-mpx-elf/3.2.1/../../../../lexra-mpx-elf/lib/soft-float/libc.a(sprintf.o)
                                        0x654 (size before relaxing)
 .stab          0x000000000000129c      0x300 /cygdrive/e/mips/bin/../lib/gcc-lib/lexra-mpx-elf/3.2.1/../../../../lexra-mpx-elf/lib/soft-float/libc.a(strcat.o)
                                        0x30c (size before relaxing)
 .stab          0x000000000000159c      0x360 /cygdrive/e/mips/bin/../lib/gcc-lib/lexra-mpx-elf/3.2.1/../../../../lexra-mpx-elf/lib/soft-float/libc.a(strchr.o)
                                        0x36c (size before relaxing)
 .stab          0x00000000000018fc      0x2f4 /cygdrive/e/mips/bin/../lib/gcc-lib/lexra-mpx-elf/3.2.1/../../../../lexra-mpx-elf/lib/soft-float/libc.a(strcpy.o)
                                        0x300 (size before relaxing)
 .stab          0x0000000000001bf0      0x2a0 /cygdrive/e/mips/bin/../lib/gcc-lib/lexra-mpx-elf/3.2.1/../../../../lexra-mpx-elf/lib/soft-float/libc.a(strlen.o)
                                        0x2ac (size before relaxing)
 .stab          0x0000000000001e90      0x174 /cygdrive/e/mips/bin/../lib/gcc-lib/lexra-mpx-elf/3.2.1/../../../../lexra-mpx-elf/lib/soft-float/libc.a(toupper.o)
                                        0x180 (size before relaxing)
 .stab          0x0000000000002004     0x1e90 /cygdrive/e/mips/bin/../lib/gcc-lib/lexra-mpx-elf/3.2.1/../../../../lexra-mpx-elf/lib/soft-float/libc.a(vfprintf.o)
                                       0x1e9c (size before relaxing)
 .stab          0x0000000000003e94      0x630 /cygdrive/e/mips/bin/../lib/gcc-lib/lexra-mpx-elf/3.2.1/../../../../lexra-mpx-elf/lib/soft-float/libc.a(vsnprintf.o)
                                        0x63c (size before relaxing)
 .stab          0x00000000000044c4      0x528 /cygdrive/e/mips/bin/../lib/gcc-lib/lexra-mpx-elf/3.2.1/../../../../lexra-mpx-elf/lib/soft-float/libc.a(wsetup.o)
                                        0x534 (size before relaxing)
 .stab          0x00000000000049ec      0x150 /cygdrive/e/mips/bin/../lib/gcc-lib/lexra-mpx-elf/3.2.1/../../../../lexra-mpx-elf/lib/soft-float/libc.a(ctype_.o)
                                        0x15c (size before relaxing)
 .stab          0x0000000000004b3c     0x20e8 /cygdrive/e/mips/bin/../lib/gcc-lib/lexra-mpx-elf/3.2.1/../../../../lexra-mpx-elf/lib/soft-float/libc.a(dtoa.o)
                                       0x20f4 (size before relaxing)
 .stab          0x0000000000006c24      0x570 /cygdrive/e/mips/bin/../lib/gcc-lib/lexra-mpx-elf/3.2.1/../../../../lexra-mpx-elf/lib/soft-float/libc.a(fflush.o)
                                        0x57c (size before relaxing)
 .stab          0x0000000000007194      0xa80 /cygdrive/e/mips/bin/../lib/gcc-lib/lexra-mpx-elf/3.2.1/../../../../lexra-mpx-elf/lib/soft-float/libc.a(findfp.o)
                                        0xa8c (size before relaxing)
 .stab          0x0000000000007c14      0x960 /cygdrive/e/mips/bin/../lib/gcc-lib/lexra-mpx-elf/3.2.1/../../../../lexra-mpx-elf/lib/soft-float/libc.a(freer.o)
                                        0x96c (size before relaxing)
 .stab          0x0000000000008574      0xa44 /cygdrive/e/mips/bin/../lib/gcc-lib/lexra-mpx-elf/3.2.1/../../../../lexra-mpx-elf/lib/soft-float/libc.a(fvwrite.o)
                                        0xa50 (size before relaxing)
 .stab          0x0000000000008fb8      0x540 /cygdrive/e/mips/bin/../lib/gcc-lib/lexra-mpx-elf/3.2.1/../../../../lexra-mpx-elf/lib/soft-float/libc.a(fwalk.o)
                                        0x54c (size before relaxing)
 .stab          0x00000000000094f8      0x24c /cygdrive/e/mips/bin/../lib/gcc-lib/lexra-mpx-elf/3.2.1/../../../../lexra-mpx-elf/lib/soft-float/libc.a(impure.o)
                                        0x258 (size before relaxing)
 .stab          0x0000000000009744      0x450 /cygdrive/e/mips/bin/../lib/gcc-lib/lexra-mpx-elf/3.2.1/../../../../lexra-mpx-elf/lib/soft-float/libc.a(locale.o)
                                        0x45c (size before relaxing)
 .stab          0x0000000000009b94      0x63c /cygdrive/e/mips/bin/../lib/gcc-lib/lexra-mpx-elf/3.2.1/../../../../lexra-mpx-elf/lib/soft-float/libc.a(makebuf.o)
                                        0x648 (size before relaxing)
 .stab          0x000000000000a1d0      0xfa8 /cygdrive/e/mips/bin/../lib/gcc-lib/lexra-mpx-elf/3.2.1/../../../../lexra-mpx-elf/lib/soft-float/libc.a(mallocr.o)
                                        0xfb4 (size before relaxing)
 .stab          0x000000000000b178      0x330 /cygdrive/e/mips/bin/../lib/gcc-lib/lexra-mpx-elf/3.2.1/../../../../lexra-mpx-elf/lib/soft-float/libc.a(mbtowc_r.o)
                                        0x33c (size before relaxing)
 .stab          0x000000000000b4a8      0x3d8 /cygdrive/e/mips/bin/../lib/gcc-lib/lexra-mpx-elf/3.2.1/../../../../lexra-mpx-elf/lib/soft-float/libc.a(memchr.o)
                                        0x3e4 (size before relaxing)
 .stab          0x000000000000b880      0x4b0 /cygdrive/e/mips/bin/../lib/gcc-lib/lexra-mpx-elf/3.2.1/../../../../lexra-mpx-elf/lib/soft-float/libc.a(memmove.o)
                                        0x4bc (size before relaxing)
 .stab          0x000000000000bd30      0x288 /cygdrive/e/mips/bin/../lib/gcc-lib/lexra-mpx-elf/3.2.1/../../../../lexra-mpx-elf/lib/soft-float/libc.a(mlock.o)
                                        0x294 (size before relaxing)
 .stab          0x000000000000bfb8     0x270c /cygdrive/e/mips/bin/../lib/gcc-lib/lexra-mpx-elf/3.2.1/../../../../lexra-mpx-elf/lib/soft-float/libc.a(mprec.o)
                                       0x2718 (size before relaxing)
 .stab          0x000000000000e6c4      0xc30 /cygdrive/e/mips/bin/../lib/gcc-lib/lexra-mpx-elf/3.2.1/../../../../lexra-mpx-elf/lib/soft-float/libc.a(reallocr.o)
                                        0xc3c (size before relaxing)
 .stab          0x000000000000f2f4      0x4bc /cygdrive/e/mips/bin/../lib/gcc-lib/lexra-mpx-elf/3.2.1/../../../../lexra-mpx-elf/lib/soft-float/libc.a(s_isinf.o)
                                        0x4c8 (size before relaxing)
 .stab          0x000000000000f7b0      0x4b0 /cygdrive/e/mips/bin/../lib/gcc-lib/lexra-mpx-elf/3.2.1/../../../../lexra-mpx-elf/lib/soft-float/libc.a(s_isnan.o)
                                        0x4bc (size before relaxing)
 .stab          0x000000000000fc60      0x4a4 /cygdrive/e/mips/bin/../lib/gcc-lib/lexra-mpx-elf/3.2.1/../../../../lexra-mpx-elf/lib/soft-float/libc.a(sbrkr.o)
                                        0x4b0 (size before relaxing)
 .stab          0x0000000000010104      0x744 /cygdrive/e/mips/bin/../lib/gcc-lib/lexra-mpx-elf/3.2.1/../../../../lexra-mpx-elf/lib/soft-float/libc.a(stdio.o)
                                        0x750 (size before relaxing)
 .stab          0x0000000000010848      0x408 /cygdrive/e/mips/bin/../lib/gcc-lib/lexra-mpx-elf/3.2.1/../../../../lexra-mpx-elf/lib/soft-float/libc.a(strcmp.o)
                                        0x414 (size before relaxing)
 .stab          0x0000000000010c50      0x4bc /cygdrive/e/mips/bin/../lib/gcc-lib/lexra-mpx-elf/3.2.1/../../../../lexra-mpx-elf/lib/soft-float/libc.a(writer.o)
                                        0x4c8 (size before relaxing)
 .stab          0x000000000001110c      0x5a0 /cygdrive/e/mips/bin/../lib/gcc-lib/lexra-mpx-elf/3.2.1/../../../../lexra-mpx-elf/lib/soft-float/libc.a(callocr.o)
                                        0x5ac (size before relaxing)
 .stab          0x00000000000116ac      0x4a4 /cygdrive/e/mips/bin/../lib/gcc-lib/lexra-mpx-elf/3.2.1/../../../../lexra-mpx-elf/lib/soft-float/libc.a(closer.o)
                                        0x4b0 (size before relaxing)
 .stab          0x0000000000011b50      0x4c8 /cygdrive/e/mips/bin/../lib/gcc-lib/lexra-mpx-elf/3.2.1/../../../../lexra-mpx-elf/lib/soft-float/libc.a(fstatr.o)
                                        0x4d4 (size before relaxing)
 .stab          0x0000000000012018      0x4bc /cygdrive/e/mips/bin/../lib/gcc-lib/lexra-mpx-elf/3.2.1/../../../../lexra-mpx-elf/lib/soft-float/libc.a(lseekr.o)
                                        0x4c8 (size before relaxing)
 .stab          0x00000000000124d4      0x4bc /cygdrive/e/mips/bin/../lib/gcc-lib/lexra-mpx-elf/3.2.1/../../../../lexra-mpx-elf/lib/soft-float/libc.a(readr.o)
                                        0x4c8 (size before relaxing)
 .stab          0x0000000000012990      0x588 /cygdrive/e/mips/bin/../lib/gcc-lib/lexra-mpx-elf/3.2.1/../../../../lexra-mpx-elf/lib/soft-float/libc.a(reent.o)
                                        0x594 (size before relaxing)
 .stab          0x0000000000012f18      0xec4 /cygdrive/e/mips/bin/../lib/gcc-lib/lexra-mpx-elf/3.2.1/soft-float/libgcc.a(_udivdi3.o)
                                        0xed0 (size before relaxing)
 .stab          0x0000000000013ddc      0xf0c /cygdrive/e/mips/bin/../lib/gcc-lib/lexra-mpx-elf/3.2.1/soft-float/libgcc.a(_umoddi3.o)
                                        0xf18 (size before relaxing)
 .stab          0x0000000000014ce8      0x978 /cygdrive/e/mips/bin/../lib/gcc-lib/lexra-mpx-elf/3.2.1/soft-float/libgcc.a(_addsub_df.o)
                                        0x984 (size before relaxing)
 .stab          0x0000000000015660      0xf48 /cygdrive/e/mips/bin/../lib/gcc-lib/lexra-mpx-elf/3.2.1/soft-float/libgcc.a(_mul_df.o)
                                        0xf54 (size before relaxing)
 .stab          0x00000000000165a8      0x6a8 /cygdrive/e/mips/bin/../lib/gcc-lib/lexra-mpx-elf/3.2.1/soft-float/libgcc.a(_div_df.o)
                                        0x6b4 (size before relaxing)
 .stab          0x0000000000016c50      0x360 /cygdrive/e/mips/bin/../lib/gcc-lib/lexra-mpx-elf/3.2.1/soft-float/libgcc.a(_compare_df.o)
                                        0x36c (size before relaxing)
 .stab          0x0000000000016fb0      0x3c0 /cygdrive/e/mips/bin/../lib/gcc-lib/lexra-mpx-elf/3.2.1/soft-float/libgcc.a(_si_to_df.o)
                                        0x3cc (size before relaxing)
 .stab          0x0000000000017370      0x3d8 /cygdrive/e/mips/bin/../lib/gcc-lib/lexra-mpx-elf/3.2.1/soft-float/libgcc.a(_df_to_si.o)
                                        0x3e4 (size before relaxing)
 .stab          0x0000000000017748      0x288 /cygdrive/e/mips/bin/../lib/gcc-lib/lexra-mpx-elf/3.2.1/soft-float/libgcc.a(_thenan_df.o)
                                        0x294 (size before relaxing)
 .stab          0x00000000000179d0      0x288 /cygdrive/e/mips/bin/../lib/gcc-lib/lexra-mpx-elf/3.2.1/soft-float/libgcc.a(_clz.o)
                                        0x294 (size before relaxing)
 .stab          0x0000000000017c58      0x5b8 /cygdrive/e/mips/bin/../lib/gcc-lib/lexra-mpx-elf/3.2.1/soft-float/libgcc.a(_pack_df.o)
                                        0x5c4 (size before relaxing)
 .stab          0x0000000000018210      0x4d4 /cygdrive/e/mips/bin/../lib/gcc-lib/lexra-mpx-elf/3.2.1/soft-float/libgcc.a(_unpack_df.o)
                                        0x4e0 (size before relaxing)
 .stab          0x00000000000186e4      0x438 /cygdrive/e/mips/bin/../lib/gcc-lib/lexra-mpx-elf/3.2.1/soft-float/libgcc.a(_fpcmp_parts_df.o)
                                        0x444 (size before relaxing)

.stabstr        0x0000000000000000     0x820d
 .stabstr       0x0000000000000000     0x820d /cygdrive/e/mips/bin/../lib/gcc-lib/lexra-mpx-elf/3.2.1/../../../../lexra-mpx-elf/lib/soft-float/libc.a(memcmp.o)
                                          0x0 (size before relaxing)

Cross Reference Table

Symbol                                            File
ACK1                                              ../../../libIPLAY/lib//libtouchctrl.a(tc_gt911.o)
ACK2                                              ../../../libIPLAY/lib//libtouchctrl.a(tc_gt911.o)
ACK3                                              ../../../libIPLAY/lib//libtouchctrl.a(tc_gt911.o)
API_Close_IPW1                                    ../../../libIPLAY/lib//libsensor.a(sensor_manager.o)
API_Close_Write_Into_EncBuf                       ../../../libIPLAY/lib//libsensor.a(sensor_manager.o)
API_Get_PCCAM_ReadyBuf_state                      ../../../libIPLAY/lib//libsensor.a(sensor_manager.o)
API_Open_IPW1                                     ../../../libIPLAY/lib//libsensor.a(sensor_manager.o)
API_Open_Write_Into_EncBuf                        ../../../libIPLAY/lib//libsensor.a(sensor_manager.o)
API_PCCAM_GetReadyBufCnt                          ../../../libIPLAY/lib//libsensor.a(sensor_manager.o)
API_SensorUsbGetShareBufInfo                      ../../../libIPLAY/lib//libsensor.a(sensor_manager.o)
API_SensorUsbSetShareBufInfo                      ../../../libIPLAY/lib//libsensor.a(sensor_manager.o)
API_SensorUsbUsedBufNum                           ../../../libIPLAY/lib//libsensor.a(sensor_manager.o)
API_SensorUsb_ClrEmptyFlag                        ../../../libIPLAY/lib//libsensor.a(sensor_manager.o)
API_SensorUsb_DisableShareBuf                     ../../../libIPLAY/lib//libsensor.a(sensor_manager.o)
API_SensorUsb_EnableShareBuf                      ../../../libIPLAY/lib//libsensor.a(sensor_manager.o)
API_SensorUsb_GetEmptyFlag                        ../../../libIPLAY/lib//libsensor.a(sensor_manager.o)
API_SensorUsb_GetShareBuf_status                  ../../../libIPLAY/lib//libsensor.a(sensor_manager.o)
API_SensorUsb_SetEmptyFlag                        ../../../libIPLAY/lib//libsensor.a(sensor_manager.o)
API_Sensor_Initial                                ../../../libIPLAY/lib//libsensor.a(sensor_manager.o)
                                                  ../../../libIPLAY/lib//libRecord.a(record_task.o)
API_Sensor_Stop                                   ../../../libIPLAY/lib//libsensor.a(sensor_manager.o)
                                                  ../../../libIPLAY/lib//libRecord.a(record_task.o)
API_SetAudioTimeStamp                             ../../../libIPLAY/lib//libmpapi.a(api_main.o)
API_SetSensorWindow                               ../../../libIPLAY/lib//libsensor.a(sensor_manager.o)
                                                  ../../../libIPLAY/lib//libsensor.a(sensor_NT99140.o)
API_SetVideoSpeed                                 ../../../libIPLAY/lib//libmpapi.a(api_main.o)
API_Set_PCCAM_GetReadyBufCnt                      ../../../libIPLAY/lib//libsensor.a(sensor_manager.o)
API_Set_PCCAM_ReadyBuf_state                      ../../../libIPLAY/lib//libsensor.a(sensor_manager.o)
AVIEN_closefile                                   ../../../libIPLAY/lib//libavipacker.a(AVI_packerAPI.o)
                                                  ../../../libIPLAY/lib//libRecord.a(record_task.o)
AVIEN_createfile                                  ../../../libIPLAY/lib//libavipacker.a(AVI_packerAPI.o)
                                                  ../../../libIPLAY/lib//libRecord.a(record_task.o)
AVIEN_fillJpeg                                    ../../../libIPLAY/lib//libavipacker.a(AVI_packerAPI.o)
AVIEN_fillPcm                                     ../../../libIPLAY/lib//libavipacker.a(AVI_packerAPI.o)
Adjust_RotateMCU                                  ../../../libIPLAY/lib//libimage.a(jpeg_hal.o)
AiuDmaClearCallBackFunc                           ../../../libIPLAY/lib//libmpapi.a(api_main.o)
AiuDmaRegCallBackFunc                             ../../../libIPLAY/lib//libmpapi.a(api_main.o)
Api_AlarmSoundPlayer                              ../../../libIPLAY/lib//libmpapi.a(api_main.o)
Api_AmrRecordDisable                              ../../../libIPLAY/lib//libmpapi.a(api_main.o)
Api_AmrRecordEnable                               ../../../libIPLAY/lib//libmpapi.a(api_main.o)
Api_AudioBackward                                 ../../../libIPLAY/lib//libmpapi.a(api_main.o)
Api_AudioForward                                  ../../../libIPLAY/lib//libmpapi.a(api_main.o)
Api_AudioHWDisable                                ../../../libIPLAY/lib//libmpapi.a(api_main.o)
Api_AudioHWEnable                                 ../../../libIPLAY/lib//libmpapi.a(api_main.o)
                                                  ../object/xpgPhotoFunc.o
Api_AudioPause                                    ../../../libIPLAY/lib//libmpapi.a(api_main.o)
Api_Audio_getID3_pic                              ../../../libIPLAY/lib//libmpapi.a(api_main.o)
Api_ChangeDisplayRatio                            ../../../libIPLAY/lib//libmpapi.a(api_main.o)
Api_Clear_PCCAM_SwitchBuf_flag                    ../../../libIPLAY/lib//libsensor.a(sensor_manager.o)
Api_EnterMoviePlayer                              ../../../libIPLAY/lib//libmpapi.a(api_main.o)
Api_EnterMoviePreview                             ../../../libIPLAY/lib//libmpapi.a(api_main.o)
Api_ExitMoviePlayer                               ../../../libIPLAY/lib//libmpapi.a(api_main.o)
Api_GetEQInfo                                     ../../../libIPLAY/lib//libmpapi.a(api_main.o)
Api_Get_PCCAM_SwitchBuf_flag                      ../../../libIPLAY/lib//libsensor.a(sensor_manager.o)
Api_KeyToneSoundPlayer                            ../../../libIPLAY/lib//libmpapi.a(api_main.o)
Api_MovieBackward                                 ../../../libIPLAY/lib//libmpapi.a(api_main.o)
Api_MovieChangeToFullScreenMode                   ../../../libIPLAY/lib//libmpapi.a(api_main.o)
Api_MovieChangeToThumbMode                        ../../../libIPLAY/lib//libmpapi.a(api_main.o)
Api_MovieForward                                  ../../../libIPLAY/lib//libmpapi.a(api_main.o)
Api_MovieGetMediaInfo                             ../../../libIPLAY/lib//libmpapi.a(api_main.o)
Api_MoviePause                                    ../../../libIPLAY/lib//libmpapi.a(api_main.o)
Api_MoviePlay                                     ../../../libIPLAY/lib//libmpapi.a(api_main.o)
Api_MovieResume                                   ../../../libIPLAY/lib//libmpapi.a(api_main.o)
Api_MovieStatusGet                                ../../../libIPLAY/lib//libmpapi.a(api_main.o)
Api_MovieStop                                     ../../../libIPLAY/lib//libmpapi.a(api_main.o)
Api_MovieVideoFullScreen                          ../../../libIPLAY/lib//libmpapi.a(api_main.o)
Api_SetRecordVolume                               ../../../libIPLAY/lib//libmpapi.a(api_main.o)
                                                  ../object/camcorder_func.o
Api_Set_PCCAM_SwitchBuf_flag                      ../../../libIPLAY/lib//libsensor.a(sensor_manager.o)
Api_StopVideoRecording                            ../../../libIPLAY/lib//libmpapi.a(api_main.o)
                                                  ../object/camcorder_func.o
Api_VideoDrawThumb                                ../../../libIPLAY/lib//libmpapi.a(api_main.o)
Api_VideoRecording                                ../../../libIPLAY/lib//libmpapi.a(api_main.o)
                                                  ../object/camcorder_func.o
Api_VideoRecordingPause                           ../../../libIPLAY/lib//libmpapi.a(api_main.o)
                                                  ../object/camcorder_func.o
Api_VideoRecordingPreviewStart                    ../../../libIPLAY/lib//libmpapi.a(api_main.o)
                                                  ../object/camcorder_func.o
Api_VideoRecordingPreviewStop                     ../../../libIPLAY/lib//libmpapi.a(api_main.o)
                                                  ../object/camcorder_func.o
Api_VideoRecordingResume                          ../../../libIPLAY/lib//libmpapi.a(api_main.o)
                                                  ../object/camcorder_func.o
Api_Wav_Sound_play                                ../../../libIPLAY/lib//libmpapi.a(api_main.o)
Api_audio_channel_select                          ../../../libIPLAY/lib//libmpapi.a(api_main.o)
ArrayCompare08                                    ../../../libIPLAY/lib//libutil.a(util_CharString.o)
ArrayCompare16                                    ../../../libIPLAY/lib//libutil.a(util_CharString.o)
AutoGetFiberLowPoint                              ../object/xpgProcSensorData.o
AutoISP                                           ../object/main.o
                                                  ../object/xpgDriveFunc.o
AutoStartWeld                                     ../object/xpgProcSensorData.o
Auto_Chase_Scaling                                ../../../libIPLAY/lib//libdisplay.a(scaler_650.o)
                                                  ../../../libIPLAY/lib//libimage.a(jpeg_hal.o)
BadInstruction                                    ../../../libIPLAY/lib//libbios.a(agent.o)
                                                  ../../../libIPLAY/lib//libbios.a(exception.o)
Bin2Bcd                                           ../../../libIPLAY/lib//libutil.a(util_CharString.o)
Boot                                              ../../../libIPLAY/lib//libbios.a(startup.o)
BootPageCheck                                     ../../../libIPLAY/lib//libMcard.a(NandPhyAdv_Mp650.o)
                                                  ../../../libIPLAY/lib//libMcard.a(NandFTL.o)
BreakHandler                                      ../../../libIPLAY/lib//libbios.a(agent.o)
                                                  ../../../libIPLAY/lib//libbios.a(exception.o)
BreakHandlerIsrCallbackRegister                   ../../../libIPLAY/lib//libbios.a(agent.o)
                                                  ../../../libIPLAY/lib//libmpapi.a(mpTrace.o)
BreakPoint                                        ../../../libIPLAY/lib//libbios.a(agent.o)
BuildNewAsciiFilename                             ../../../libIPLAY/lib//libfile.a(file.o)
                                                  ../../../libIPLAY/lib//libfile.a(dir.o)
BuildNewFDB                                       ../../../libIPLAY/lib//libfile.a(file.o)
                                                  ../../../libIPLAY/lib//libimage.a(jpegEncode.o)
BuildNewLName                                     ../../../libIPLAY/lib//libfile.a(file.o)
                                                  ../../../libIPLAY/lib//libimage.a(jpegEncode.o)
Bypass_Overlay                                    ../../../libIPLAY/lib//libdisplay.a(scaler_650.o)
Bypass_Overlay_Show_Main_Win                      ../../../libIPLAY/lib//libdisplay.a(scaler_650.o)
                                                  ../../../libIPLAY/lib//libmpapi.a(mpImageResizeApi.o)
Bypass_Show_WallPaper                             ../../../libIPLAY/lib//libdisplay.a(scaler_650.o)
CHANGMODE                                         ../../../libIPLAY/lib//libmpapi.a(api_main.o)
CacheSensorData                                   ../object/xpgProcSensorData.o
CalValue2Exp                                      ../../../libIPLAY/lib//libMcard.a(Uti.o)
                                                  ../../../libIPLAY/lib//libMcard.a(NandFTL.o)
Camcorder_PreviewStart                            ../object/camcorder_func.o
                                                  ../object/xpgFunc.o
Camcorder_PreviewStop                             ../object/camcorder_func.o
                                                  ../object/xpgFunc.o
Camcorder_RecordPause                             ../object/camcorder_func.o
Camcorder_RecordResume                            ../object/camcorder_func.o
Camcorder_RecordStart                             ../object/camcorder_func.o
Camcorder_RecordStop                              ../object/camcorder_func.o
                                                  ../object/xpgFunc.o
                                                  ../object/main.o
Camcorder_VideoRecordingPreviewStart              ../object/camcorder_func.o
CameraInit                                        ../object/xpgFunc.o
CardFatalErrorNotify                              ../../../libIPLAY/lib//libMcard.a(mcard.o)
                                                  ../../../libIPLAY/lib//libMcard.a(SD.o)
CdParent                                          ../../../libIPLAY/lib//libfile.a(dir.o)
                                                  ../../../libIPLAY/lib//libfile.a(filebrowser.o)
                                                  ../../../libIPLAY/lib//libfile.a(file.o)
CdSub                                             ../../../libIPLAY/lib//libfile.a(dir.o)
                                                  ../../../libIPLAY/lib//libfile.a(filebrowser.o)
                                                  ../../../libIPLAY/lib//libfile.a(file.o)
CduCheckEnabled                                   ../../../libIPLAY/lib//libimage.a(jpeg_hal.o)
CduDecodeEnable                                   ../../../libIPLAY/lib//libimage.a(jpeg_hal.o)
CduDisable                                        ../../../libIPLAY/lib//libimage.a(jpeg_hal.o)
CduHet                                            ../../../libIPLAY/lib//libimage.a(jpegEncode.o)
CduIsr                                            ../../../libIPLAY/lib//libimage.a(jpeg_hal.o)
                                                  ../object/main.o
CduQt                                             ../../../libIPLAY/lib//libimage.a(jpegEncode.o)
ChainChangeSize                                   ../../../libIPLAY/lib//libfile.a(chain.o)
                                                  ../../../libIPLAY/lib//libimage.a(jpegEncode.o)
                                                  ../../../libIPLAY/lib//libfile.a(file.o)
ChainCopy                                         ../../../libIPLAY/lib//libfile.a(chain.o)
                                                  ../../../libIPLAY/lib//libfile.a(file.o)
ChainExtending                                    ../../../libIPLAY/lib//libfile.a(chain.o)
                                                  ../../../libIPLAY/lib//libfile.a(file.o)
                                                  ../../../libIPLAY/lib//libfile.a(dir.o)
ChainFragmentRead                                 ../../../libIPLAY/lib//libfile.a(chain.o)
                                                  ../../../libIPLAY/lib//libfile.a(file.o)
ChainFragmentWrite                                ../../../libIPLAY/lib//libfile.a(chain.o)
                                                  ../../../libIPLAY/lib//libfile.a(file.o)
ChainFree                                         ../../../libIPLAY/lib//libfile.a(chain.o)
                                                  ../../../libIPLAY/lib//libfile.a(file.o)
                                                  ../../../libIPLAY/lib//libfile.a(dir.o)
ChainFreeToReserveStartCluster                    ../../../libIPLAY/lib//libfile.a(chain.o)
                                                  ../../../libIPLAY/lib//libfile.a(file.o)
ChainGetContinuity                                ../../../libIPLAY/lib//libfile.a(chain.o)
ChainGetLba                                       ../../../libIPLAY/lib//libfile.a(chain.o)
                                                  ../../../libIPLAY/lib//libfile.a(dir.o)
ChainInit                                         ../../../libIPLAY/lib//libfile.a(chain.o)
                                                  ../../../libIPLAY/lib//libimage.a(jpegEncode.o)
                                                  ../../../libIPLAY/lib//libfile.a(file.o)
                                                  ../../../libIPLAY/lib//libfile.a(dir.o)
ChainRead                                         ../../../libIPLAY/lib//libfile.a(chain.o)
                                                  ../../../libIPLAY/lib//libfile.a(file.o)
ChainSeek                                         ../../../libIPLAY/lib//libfile.a(chain.o)
                                                  ../../../libIPLAY/lib//libfile.a(file.o)
                                                  ../../../libIPLAY/lib//libfile.a(dir.o)
ChainSeekEnd                                      ../../../libIPLAY/lib//libfile.a(chain.o)
                                                  ../../../libIPLAY/lib//libfile.a(file.o)
ChainSeekForward                                  ../../../libIPLAY/lib//libfile.a(chain.o)
                                                  ../../../libIPLAY/lib//libfile.a(file.o)
                                                  ../../../libIPLAY/lib//libfile.a(dir.o)
ChainSeekSet                                      ../../../libIPLAY/lib//libfile.a(chain.o)
                                                  ../../../libIPLAY/lib//libimage.a(jpegEncode.o)
                                                  ../../../libIPLAY/lib//libfile.a(file.o)
                                                  ../../../libIPLAY/lib//libfile.a(dir.o)
ChainWrite                                        ../../../libIPLAY/lib//libfile.a(chain.o)
                                                  ../../../libIPLAY/lib//libimage.a(jpegEncode.o)
                                                  ../../../libIPLAY/lib//libfile.a(file.o)
ChangFontSize2Fix                                 ../../../libIPLAY/lib//libdisplay.a(imgString.o)
ChangeFontSize2Nonfix                             ../../../libIPLAY/lib//libdisplay.a(imgString.o)
ChangeLanguage                                    ../object/xpgString.o
CharUpperCase08                                   ../../../libIPLAY/lib//libutil.a(util_CharString.o)
CharUpperCase16                                   ../../../libIPLAY/lib//libutil.a(util_CharString.o)
                                                  ../../../libIPLAY/lib//libfile.a(file.o)
CheckDeletedCount                                 ../../../libIPLAY/lib//libfile.a(dir.o)
                                                  ../../../libIPLAY/lib//libfile.a(file.o)
CheckSpaceIfEnough                                ../../../libIPLAY/lib//libfile.a(file.o)
CheckSpareContent                                 ../../../libIPLAY/lib//libMcard.a(NandPhyAdv_Mp650.o)
                                                  ../../../libIPLAY/lib//libMcard.a(NandFTL.o)
CheckTimerAction                                  ../object/ui_timer.o
CheckUartStatus                                   ../../../libIPLAY/lib//libmpapi.a(mpTrace.o)
Check_Thumb_exist                                 ../../../libIPLAY/lib//libmpapi.a(mpImageFileApi.o)
Choose_Buff_Size                                  ../../../libIPLAY/lib//libimage.a(jpeg_hal.o)
Clear_Bypass_Overlay_Param                        ../../../libIPLAY/lib//libdisplay.a(scaler_650.o)
Clock_CpuClockSelGet                              ../../../libIPLAY/lib//libbios.a(hal_Ckg.o)
Clock_CpuClockSelSet                              ../../../libIPLAY/lib//libbios.a(hal_Ckg.o)
                                                  ../object/main.o
Clock_CpuFreqGet                                  ../../../libIPLAY/lib//libbios.a(hal_Ckg.o)
                                                  ../../../libIPLAY/lib//libimage.a(jpeg_hal.o)
                                                  ../object/main.o
Clock_DRAM_timing_Set                             ../../../libIPLAY/lib//libbios.a(hal_Ckg.o)
Clock_DllDelayTuning                              ../../../libIPLAY/lib//libbios.a(hal_Ckg.o)
Clock_DllDelay_Set                                ../../../libIPLAY/lib//libbios.a(hal_Ckg.o)
Clock_Dma_tRCD_Get                                ../../../libIPLAY/lib//libbios.a(hal_Ckg.o)
Clock_Dma_tRCD_Set                                ../../../libIPLAY/lib//libbios.a(hal_Ckg.o)
Clock_Dma_tRP_Get                                 ../../../libIPLAY/lib//libbios.a(hal_Ckg.o)
Clock_Dma_tRP_Set                                 ../../../libIPLAY/lib//libbios.a(hal_Ckg.o)
Clock_Dma_tWTR_Get                                ../../../libIPLAY/lib//libbios.a(hal_Ckg.o)
Clock_Dma_tWTR_Set                                ../../../libIPLAY/lib//libbios.a(hal_Ckg.o)
Clock_IpuClockSelGet                              ../../../libIPLAY/lib//libbios.a(hal_Ckg.o)
Clock_IpuClockSelSet                              ../../../libIPLAY/lib//libbios.a(hal_Ckg.o)
Clock_MemClockSelGet                              ../../../libIPLAY/lib//libbios.a(hal_Ckg.o)
Clock_MemClockSelSet                              ../../../libIPLAY/lib//libbios.a(hal_Ckg.o)
Clock_MemClockSelSet4Pwdc                         ../../../libIPLAY/lib//libbios.a(hal_Ckg.o)
Clock_MemFreqGet                                  ../../../libIPLAY/lib//libbios.a(hal_Ckg.o)
                                                  ../object/camcorder_func.o
                                                  ../object/main.o
Clock_MemTypeGet                                  ../../../libIPLAY/lib//libbios.a(hal_Ckg.o)
Clock_PllCfgGet                                   ../../../libIPLAY/lib//libbios.a(hal_Ckg.o)
Clock_PllCfgSet                                   ../../../libIPLAY/lib//libbios.a(hal_Ckg.o)
                                                  ../../../libIPLAY/lib//libdisplay.a(idu.o)
Clock_PllFreqGet                                  ../../../libIPLAY/lib//libbios.a(hal_Ckg.o)
                                                  ../../../libIPLAY/lib//libbios.a(MP650_uart.o)
                                                  ../../../libIPLAY/lib//libMcard.a(mcard.o)
                                                  ../../../libIPLAY/lib//libos.a(systimer.o)
                                                  ../object/main.o
Clock_PllFreqSet                                  ../../../libIPLAY/lib//libbios.a(hal_Ckg.o)
                                                  ../../../libIPLAY/lib//libdisplay.a(idu.o)
                                                  ../object/main.o
Clock_PllSprdSet                                  ../../../libIPLAY/lib//libbios.a(hal_Ckg.o)
Clock_PllSprdSetByFreq                            ../../../libIPLAY/lib//libbios.a(hal_Ckg.o)
Clock_SystemFrequencyChange                       ../../../libIPLAY/lib//libbios.a(hal_Ckg.o)
ClrBrowserDrvId                                   ../object/xpgBrowser.o
                                                  ../object/xpgDriveFunc.o
ContextStatusGet                                  ../../../libIPLAY/lib//libos.a(task.o)
                                                  ../../../libIPLAY/lib//libbios.a(MP650_uart.o)
                                                  ../../../libIPLAY/lib//libmpapi.a(mpUtil.o)
                                                  ../../../libIPLAY/lib//libperipheral.a(hal_mmcp.o)
                                                  ../../../libIPLAY/lib//libos.a(message.o)
ContextUpdate                                     ../../../libIPLAY/lib//libos.a(task.o)
                                                  ../../../libIPLAY/lib//libos.a(semaphore.o)
                                                  ../../../libIPLAY/lib//libos.a(message.o)
                                                  ../../../libIPLAY/lib//libos.a(mailbox.o)
                                                  ../../../libIPLAY/lib//libos.a(event.o)
CreateFile                                        ../../../libIPLAY/lib//libfile.a(file.o)
                                                  ../../../libIPLAY/lib//libsystem.a(SetTabFunc.o)
                                                  ../../../libIPLAY/lib//libsystem.a(McardDevInfo.o)
                                                  ../object/UI_FileSystem.o
CreateFileByTime                                  ../object/UI_FileSystem.o
                                                  ../object/xpgFunc.o
CreateFile_UTF16                                  ../../../libIPLAY/lib//libfile.a(file.o)
                                                  ../object/UI_FileSystem.o
CreateNewDiskPartition                            ../../../libIPLAY/lib//libfile.a(Format.o)
CreatePhotoFileByIndex                            ../object/UI_FileSystem.o
DebugPrint                                        ../../../libIPLAY/lib//libbios.a(agent.o)
DebugPrintString                                  ../../../libIPLAY/lib//libbios.a(agent.o)
                                                  ../../../libIPLAY/lib//libmpapi.a(mpTrace.o)
DebugPrintWord                                    ../../../libIPLAY/lib//libbios.a(agent.o)
DecString                                         ../../../libIPLAY/lib//libutil.a(util_CharString.o)
DeleteAllContentWithinDir                         ../../../libIPLAY/lib//libfile.a(dir.o)
DeleteDir                                         ../../../libIPLAY/lib//libfile.a(dir.o)
                                                  ../../../libIPLAY/lib//libfile.a(filebrowser.o)
                                                  ../../../libIPLAY/lib//libfile.a(file.o)
DeleteFile                                        ../../../libIPLAY/lib//libfile.a(file.o)
                                                  ../../../libIPLAY/lib//libavipacker.a(AVI_packerAPI.o)
                                                  ../../../libIPLAY/lib//libfile.a(filebrowser.o)
                                                  ../object/xpgFunc.o
DeleteFileOrFolderOfCurrentFDB                    ../../../libIPLAY/lib//libfile.a(file.o)
                                                  ../../../libIPLAY/lib//libfile.a(dir.o)
DetermineSDSlotType                               ../../../libIPLAY/lib//libMcard.a(SD.o)
                                                  ../../../libIPLAY/lib//libMcard.a(mcard.o)
DeviceIndex2DrvName                               ../../../libIPLAY/lib//libsystem.a(SystemConfig.o)
DigitStringSeparate                               ../../../libIPLAY/lib//libutil.a(util_CharString.o)
DirCaching                                        ../../../libIPLAY/lib//libfile.a(dir.o)
                                                  ../../../libIPLAY/lib//libfile.a(file.o)
DirCaching_for_DirChain                           ../../../libIPLAY/lib//libfile.a(dir.o)
DirFirst                                          ../../../libIPLAY/lib//libfile.a(dir.o)
                                                  ../../../libIPLAY/lib//libimage.a(jpegEncode.o)
                                                  ../../../libIPLAY/lib//libfile.a(filebrowser.o)
                                                  ../../../libIPLAY/lib//libfile.a(file.o)
                                                  ../object/main.o
DirLast                                           ../../../libIPLAY/lib//libfile.a(dir.o)
                                                  ../../../libIPLAY/lib//libfile.a(file.o)
DirNext                                           ../../../libIPLAY/lib//libfile.a(dir.o)
                                                  ../../../libIPLAY/lib//libfile.a(file.o)
DirPrevious                                       ../../../libIPLAY/lib//libfile.a(dir.o)
DirReset                                          ../../../libIPLAY/lib//libfile.a(dir.o)
                                                  ../../../libIPLAY/lib//libimage.a(jpegEncode.o)
                                                  ../../../libIPLAY/lib//libsystem.a(SetTabFunc.o)
                                                  ../../../libIPLAY/lib//libfile.a(filebrowser.o)
                                                  ../../../libIPLAY/lib//libfile.a(file.o)
                                                  ../../../libIPLAY/lib//libfile.a(drive.o)
                                                  ../object/main.o
DirectoryCopy                                     ../../../libIPLAY/lib//libfile.a(file.o)
                                                  ../../../libIPLAY/lib//libfile.a(filebrowser.o)
DisUartInt                                        ../../../libIPLAY/lib//libmpapi.a(mpTrace.o)
Discharge                                         ../object/xpgProcSensorData.o
DiskPartitioning_WithMaxTwoPartitions             ../../../libIPLAY/lib//libfile.a(Format.o)
                                                  ../object/main.o
DisplayColorTest                                  ../object/main.o
DisplayInit                                       ../../../libIPLAY/lib//libdisplay.a(idu.o)
                                                  ../object/main.o
DisplaySensorImage                                ../object/xpgProcSensorData.o
DisplaySensorOnCurrWin                            ../object/xpgProcSensorData.o
DisplayWinPosition                                ../../../libIPLAY/lib//libmpapi.a(mpImageApi.o)
DmaIduIsr                                         ../../../libIPLAY/lib//libdisplay.a(idu.o)
                                                  ../object/main.o
DmaIntDis                                         ../../../libIPLAY/lib//libos.a(interrupt.o)
                                                  ../../../libIPLAY/lib//libmpapi.a(api_main.o)
                                                  ../../../libIPLAY/lib//libMcard.a(mcard.o)
DmaIntEna                                         ../../../libIPLAY/lib//libos.a(interrupt.o)
                                                  ../../../libIPLAY/lib//libdisplay.a(idu.o)
DmaIntHandleRegister                              ../../../libIPLAY/lib//libos.a(interrupt.o)
                                                  ../../../libIPLAY/lib//libmpapi.a(api_main.o)
                                                  ../object/main.o
DmaIntHandleRelease                               ../../../libIPLAY/lib//libos.a(interrupt.o)
DmaMcardIsr                                       ../../../libIPLAY/lib//libMcard.a(mcard.o)
Dma_BiuPghitCheckEnable                           ../../../libIPLAY/lib//libbios.a(hal_Ckg.o)
Dma_BiuRequestSuspendSetting                      ../../../libIPLAY/lib//libbios.a(hal_Ckg.o)
Dma_FdmaFifoTimingAdjust                          ../../../libIPLAY/lib//libbios.a(hal_Ckg.o)
                                                  ../object/main.o
Dma_FirstPrioritySet                              ../../../libIPLAY/lib//libbios.a(hal_Ckg.o)
                                                  ../object/main.o
Dma_FourthPrioritySet                             ../../../libIPLAY/lib//libbios.a(hal_Ckg.o)
Dma_PriorityDefault                               ../../../libIPLAY/lib//libbios.a(hal_Ckg.o)
                                                  ../../../libIPLAY/lib//libdisplay.a(idu.o)
                                                  ../object/main.o
Dma_PriorityDefaultSave                           ../../../libIPLAY/lib//libbios.a(hal_Ckg.o)
                                                  ../object/main.o
Dma_SecondaryPrioritySet                          ../../../libIPLAY/lib//libbios.a(hal_Ckg.o)
                                                  ../object/main.o
Dma_ThirdPrioritySet                              ../../../libIPLAY/lib//libbios.a(hal_Ckg.o)
DoSearch                                          ../../../libIPLAY/lib//libfile.a(filebrowser.o)
DpString                                          ../../../libIPLAY/lib//libbios.a(agent.o)
                                                  ../../../libIPLAY/lib//libdemux.a(board.o)
DpWord                                            ../../../libIPLAY/lib//libbios.a(agent.o)
DrawHiLightBox                                    ../object/xpgDrawSprite.o
DriveAdd                                          ../../../libIPLAY/lib//libfile.a(drive.o)
                                                  ../../../libIPLAY/lib//libfile.a(Format.o)
                                                  ../../../libIPLAY/lib//libfile.a(file.o)
                                                  ../object/main.o
DriveChange                                       ../../../libIPLAY/lib//libfile.a(drive.o)
                                                  ../../../libIPLAY/lib//libimage.a(jpegEncode.o)
                                                  ../../../libIPLAY/lib//libsystem.a(McardDevInfo.o)
                                                  ../object/xpgDriveFunc.o
                                                  ../object/main.o
DriveCopyAllFiles                                 ../../../libIPLAY/lib//libfile.a(file.o)
DriveCountGet                                     ../../../libIPLAY/lib//libfile.a(drive.o)
                                                  ../object/xpgDriveFunc.o
DriveCountUpdate                                  ../../../libIPLAY/lib//libfile.a(drive.o)
DriveCurIdGet                                     ../../../libIPLAY/lib//libfile.a(drive.o)
                                                  ../../../libIPLAY/lib//libsystem.a(McardDevInfo.o)
                                                  ../../../libIPLAY/lib//libfile.a(file.o)
                                                  ../object/UI_FileSystem.o
                                                  ../object/camcorder_func.o
                                                  ../object/xpgDriveFunc.o
                                                  ../object/xpgFunc.o
DriveDelete                                       ../../../libIPLAY/lib//libfile.a(drive.o)
                                                  ../../../libIPLAY/lib//libfile.a(Format.o)
                                                  ../object/main.o
DriveFreeClustersCountGet                         ../../../libIPLAY/lib//libfile.a(drive.o)
                                                  ../../../libIPLAY/lib//libfile.a(file.o)
                                                  ../../../libIPLAY/lib//libfile.a(chain.o)
DriveFreeSizeGet                                  ../../../libIPLAY/lib//libfile.a(drive.o)
                                                  ../object/camcorder_func.o
                                                  ../object/xpgFunc.o
DriveGet                                          ../../../libIPLAY/lib//libfile.a(drive.o)
                                                  ../../../libIPLAY/lib//libimage.a(jpegEncode.o)
                                                  ../../../libIPLAY/lib//libsystem.a(SetTabFunc.o)
                                                  ../../../libIPLAY/lib//libsystem.a(McardDevInfo.o)
                                                  ../../../libIPLAY/lib//libfile.a(filebrowser.o)
                                                  ../../../libIPLAY/lib//libfile.a(Format.o)
                                                  ../../../libIPLAY/lib//libfile.a(file.o)
                                                  ../../../libIPLAY/lib//libfile.a(dir.o)
                                                  ../object/UI_FileSystem.o
                                                  ../object/camcorder_func.o
                                                  ../object/xpgFunc.o
                                                  ../object/main.o
DriveHandleCopy                                   ../../../libIPLAY/lib//libfile.a(drive.o)
DriveIndex2DrvName                                ../../../libIPLAY/lib//libsystem.a(SystemConfig.o)
                                                  ../../../libIPLAY/lib//libsystem.a(SetTabFunc.o)
                                                  ../../../libIPLAY/lib//libfile.a(file.o)
                                                  ../../../libIPLAY/lib//libfile.a(drive.o)
                                                  ../object/main.o
DriveIndex2PhyDevID                               ../../../libIPLAY/lib//libsystem.a(SystemConfig.o)
                                                  ../../../libIPLAY/lib//libsystem.a(SetTabFunc.o)
                                                  ../../../libIPLAY/lib//libsystem.a(SystemDrive.o)
                                                  ../../../libIPLAY/lib//libfile.a(Format.o)
                                                  ../../../libIPLAY/lib//libfile.a(file.o)
                                                  ../../../libIPLAY/lib//libfile.a(drive.o)
                                                  ../object/main.o
DriveMotor                                        ../object/xpgProcSensorData.o
DriveName2DrvIndexID                              ../../../libIPLAY/lib//libsystem.a(SystemConfig.o)
                                                  ../../../libIPLAY/lib//libfile.a(file.o)
DriveNewClusGet                                   ../../../libIPLAY/lib//libfile.a(drive.o)
                                                  ../../../libIPLAY/lib//libimage.a(jpegEncode.o)
                                                  ../../../libIPLAY/lib//libfile.a(file.o)
                                                  ../../../libIPLAY/lib//libfile.a(chain.o)
                                                  ../../../libIPLAY/lib//libfile.a(dir.o)
DriveRead                                         ../../../libIPLAY/lib//libfile.a(drive.o)
                                                  ../../../libIPLAY/lib//libfile.a(file.o)
                                                  ../../../libIPLAY/lib//libfile.a(chain.o)
                                                  ../../../libIPLAY/lib//libfile.a(dir.o)
DriveRefresh                                      ../../../libIPLAY/lib//libfile.a(drive.o)
                                                  ../../../libIPLAY/lib//libimage.a(jpegEncode.o)
                                                  ../../../libIPLAY/lib//libfile.a(file.o)
                                                  ../../../libIPLAY/lib//libfile.a(dir.o)
DriveSetcorSizeGet                                ../../../libIPLAY/lib//libfile.a(drive.o)
                                                  ../object/camcorder_func.o
                                                  ../object/xpgFunc.o
DriveTotalSizeGet                                 ../../../libIPLAY/lib//libfile.a(drive.o)
DriveWrite                                        ../../../libIPLAY/lib//libfile.a(drive.o)
                                                  ../../../libIPLAY/lib//libfile.a(file.o)
                                                  ../../../libIPLAY/lib//libfile.a(chain.o)
                                                  ../../../libIPLAY/lib//libfile.a(dir.o)
Drive_Formatting                                  ../../../libIPLAY/lib//libfile.a(Format.o)
Drive_Sensor                                      ../../../libIPLAY/lib//libsensor.a(sensor_manager.o)
                                                  ../../../libIPLAY/lib//libsensor.a(sensor_NT99140.o)
Drive_Sensor_NT99140                              ../../../libIPLAY/lib//libsensor.a(sensor_driver_NT99140.o)
                                                  ../../../libIPLAY/lib//libsensor.a(sensor_manager.o)
DtdClkSetting                                     ../../../libIPLAY/lib//libdisplay.a(idu.o)
DtdRegSetting                                     ../../../libIPLAY/lib//libdisplay.a(idu.o)
DumpDevPartitionTableFromMBR                      ../../../libIPLAY/lib//libfile.a(drive.o)
                                                  ../object/main.o
DumpFTLTables                                     ../../../libIPLAY/lib//libMcard.a(NandFTL.o)
E_FILE_OP_TYPE                                    ../../../libIPLAY/lib//libdemux.a(board.o)
                                                  ../../../libIPLAY/lib//libmpapi.a(mpImageRotateApi.o)
                                                  ../../../libIPLAY/lib//libimage.a(jpegEncode.o)
                                                  ../../../libIPLAY/lib//libdisplay.a(ipu.o)
                                                  ../../../libIPLAY/lib//libos.a(semaphore.o)
                                                  ../../../libIPLAY/lib//libxpg.a(xpgUi.o)
                                                  ../../../libIPLAY/lib//libxpg.a(xpgDraw.o)
                                                  ../../../libIPLAY/lib//libxpg.a(xpgReader.o)
                                                  ../../../libIPLAY/lib//libxpg.a(xpgRole.o)
                                                  ../../../libIPLAY/lib//libxpg.a(xpgSprite.o)
                                                  ../../../libIPLAY/lib//libxpg.a(xpgUtil.o)
                                                  ../../../libIPLAY/lib//libxpg.a(xpgMovie.o)
                                                  ../../../libIPLAY/lib//libxpg.a(xpg.o)
                                                  ../../../libIPLAY/lib//libtouchctrl.a(tc_gt911.o)
                                                  ../../../libIPLAY/lib//libtouchctrl.a(touchCtrller.o)
                                                  ../../../libIPLAY/lib//libtouchctrl.a(tcapi.o)
                                                  ../../../libIPLAY/lib//libRecord.a(record_task.o)
                                                  ../../../libIPLAY/lib//libutil.a(util_Asc2Uni.o)
                                                  ../../../libIPLAY/lib//libutil.a(util_U16ToU08.o)
                                                  ../../../libIPLAY/lib//libutil.a(util_Utf8ToUni.o)
                                                  ../../../libIPLAY/lib//libutil.a(util_CharString.o)
                                                  ../../../libIPLAY/lib//libavipacker.a(AVI_Utility.o)
                                                  ../../../libIPLAY/lib//libavipacker.a(AVI_Packer.o)
                                                  ../../../libIPLAY/lib//libavipacker.a(AVI_packerAPI.o)
                                                  ../../../libIPLAY/lib//libavipacker.a(AVI_Stream.o)
                                                  ../../../libIPLAY/lib//libmpapi.a(mpStreamApi.o)
                                                  ../../../libIPLAY/lib//libmpapi.a(mpImageFileApi.o)
                                                  ../../../libIPLAY/lib//libmpapi.a(mpUtil.o)
                                                  ../../../libIPLAY/lib//libmpapi.a(mpTrace.o)
                                                  ../../../libIPLAY/lib//libmpapi.a(mpImageApi.o)
                                                  ../../../libIPLAY/lib//libmpapi.a(mpImageResizeApi.o)
                                                  ../../../libIPLAY/lib//libmpapi.a(api_main.o)
                                                  ../../../libIPLAY/lib//libimage.a(IMG_jpeg.o)
                                                  ../../../libIPLAY/lib//libimage.a(jpeg_hal.o)
                                                  ../../../libIPLAY/lib//libsensor.a(sensor_NT99140.o)
                                                  ../../../libIPLAY/lib//libsensor.a(sensor_driver_NT99140.o)
                                                  ../../../libIPLAY/lib//libsensor.a(sensor_manager.o)
                                                  ../../../libIPLAY/lib//libdisplay.a(hal_ipu.o)
                                                  ../../../libIPLAY/lib//libdisplay.a(scaler_650.o)
                                                  ../../../libIPLAY/lib//libdisplay.a(Font.o)
                                                  ../../../libIPLAY/lib//libdisplay.a(IduTable.o)
                                                  ../../../libIPLAY/lib//libdisplay.a(imgString.o)
                                                  ../../../libIPLAY/lib//libdisplay.a(imgWin.o)
                                                  ../../../libIPLAY/lib//libdisplay.a(fontdisp.o)
                                                  ../../../libIPLAY/lib//libdisplay.a(osd4.o)
                                                  ../../../libIPLAY/lib//libdisplay.a(osd.o)
                                                  ../../../libIPLAY/lib//libdisplay.a(idu.o)
                                                  ../../lib//libui.a(uiTouchCtrller.o)
                                                  ../../lib//libui.a(uigpio.o)
                                                  ../../../libIPLAY/lib//libsystem.a(SetTabFunc.o)
                                                  ../../../libIPLAY/lib//libsystem.a(McardDevInfo.o)
                                                  ../../../libIPLAY/lib//libsystem.a(ISP_Nand.o)
                                                  ../../../libIPLAY/lib//libsystem.a(global612.o)
                                                  ../../../libIPLAY/lib//libsystem.a(SystemDrive.o)
                                                  ../../../libIPLAY/lib//libsystem.a(SystemMemory.o)
                                                  ../../../libIPLAY/lib//libsystem.a(SystemConfig.o)
                                                  ../../../libIPLAY/lib//libperipheral.a(hal_mmcp.o)
                                                  ../../../libIPLAY/lib//libperipheral.a(hal_gpio.o)
                                                  ../../../libIPLAY/lib//libfile.a(filebrowser.o)
                                                  ../../../libIPLAY/lib//libfile.a(Format.o)
                                                  ../../../libIPLAY/lib//libfile.a(file.o)
                                                  ../../../libIPLAY/lib//libfile.a(drive.o)
                                                  ../../../libIPLAY/lib//libfile.a(chain.o)
                                                  ../../../libIPLAY/lib//libfile.a(dir.o)
                                                  ../../../libIPLAY/lib//libMcard.a(NandIdIdentify.o)
                                                  ../../../libIPLAY/lib//libMcard.a(Uti.o)
                                                  ../../../libIPLAY/lib//libMcard.a(SdPhy_Mp650.o)
                                                  ../../../libIPLAY/lib//libMcard.a(SD.o)
                                                  ../../../libIPLAY/lib//libMcard.a(NandPhyAdv_Mp650.o)
                                                  ../../../libIPLAY/lib//libMcard.a(NandFTL.o)
                                                  ../../../libIPLAY/lib//libMcard.a(mcard.o)
                                                  ../../../libIPLAY/lib//libos.a(interrupt.o)
                                                  ../../../libIPLAY/lib//libos.a(memory.o)
                                                  ../../../libIPLAY/lib//libos.a(object.o)
                                                  ../../../libIPLAY/lib//libbios.a(hal_Ckg.o)
                                                  ../../../libIPLAY/lib//libbios.a(agent.o)
                                                  ../object/xpgPhotoFunc.o
                                                  ../object/xpgVideoFunc.o
                                                  ../object/xpgProcSensorData.o
                                                  ../object/UI_FileSystem.o
                                                  ../object/WebCam.o
                                                  ../object/camcorder_func.o
                                                  ../object/platform.o
                                                  ../object/xpgBrowser.o
                                                  ../object/xpgDrawSprite.o
                                                  ../object/xpgDriveFunc.o
                                                  ../object/isp.o
                                                  ../object/Setup.o
                                                  ../object/imageplayer.o
                                                  ../object/xpgString.o
                                                  ../object/xpgFunc.o
                                                  ../object/ui_timer.o
                                                  ../object/main.o
EnaUartInt                                        ../../../libIPLAY/lib//libmpapi.a(mpTrace.o)
EndOfFile                                         ../../../libIPLAY/lib//libfile.a(file.o)
EventClear                                        ../../../libIPLAY/lib//libos.a(event.o)
                                                  ../../../libIPLAY/lib//libimage.a(jpegEncode.o)
                                                  ../../../libIPLAY/lib//libRecord.a(record_task.o)
                                                  ../../../libIPLAY/lib//libavipacker.a(AVI_Stream.o)
                                                  ../../../libIPLAY/lib//libimage.a(jpeg_hal.o)
                                                  ../../../libIPLAY/lib//libdisplay.a(scaler_650.o)
                                                  ../../../libIPLAY/lib//libdisplay.a(idu.o)
                                                  ../../../libIPLAY/lib//libsystem.a(SystemDrive.o)
                                                  ../../../libIPLAY/lib//libperipheral.a(hal_mmcp.o)
                                                  ../object/main.o
EventCreate                                       ../../../libIPLAY/lib//libos.a(event.o)
                                                  ../../../libIPLAY/lib//libRecord.a(record_task.o)
                                                  ../../../libIPLAY/lib//libmpapi.a(mpImageFileApi.o)
                                                  ../../../libIPLAY/lib//libdisplay.a(idu.o)
                                                  ../../../libIPLAY/lib//libMcard.a(mcard.o)
                                                  ../../../libIPLAY/lib//libos.a(cosmos.o)
                                                  ../object/main.o
EventDestroy                                      ../../../libIPLAY/lib//libos.a(event.o)
EventGetPoint                                     ../../../libIPLAY/lib//libos.a(object.o)
                                                  ../../../libIPLAY/lib//libos.a(event.o)
EventPolling                                      ../../../libIPLAY/lib//libos.a(event.o)
                                                  ../../../libIPLAY/lib//libsystem.a(global612.o)
EventSet                                          ../../../libIPLAY/lib//libos.a(event.o)
                                                  ../../../libIPLAY/lib//libtouchctrl.a(touchCtrller.o)
                                                  ../../../libIPLAY/lib//libRecord.a(record_task.o)
                                                  ../../../libIPLAY/lib//libavipacker.a(AVI_Stream.o)
                                                  ../../../libIPLAY/lib//libimage.a(jpeg_hal.o)
                                                  ../../../libIPLAY/lib//libdisplay.a(scaler_650.o)
                                                  ../../../libIPLAY/lib//libdisplay.a(idu.o)
                                                  ../../lib//libui.a(uiTouchCtrller.o)
                                                  ../../../libIPLAY/lib//libsystem.a(SystemDrive.o)
                                                  ../../../libIPLAY/lib//libsystem.a(SystemConfig.o)
                                                  ../../../libIPLAY/lib//libperipheral.a(hal_mmcp.o)
                                                  ../../../libIPLAY/lib//libMcard.a(mcard.o)
                                                  ../object/xpgProcSensorData.o
                                                  ../object/ui_timer.o
EventWait                                         ../../../libIPLAY/lib//libos.a(event.o)
                                                  ../../../libIPLAY/lib//libRecord.a(record_task.o)
                                                  ../../../libIPLAY/lib//libavipacker.a(AVI_Stream.o)
                                                  ../../../libIPLAY/lib//libmpapi.a(api_main.o)
                                                  ../object/main.o
EventWaitWithTO                                   ../../../libIPLAY/lib//libos.a(event.o)
                                                  ../../../libIPLAY/lib//libimage.a(jpegEncode.o)
                                                  ../../../libIPLAY/lib//libimage.a(jpeg_hal.o)
                                                  ../../../libIPLAY/lib//libdisplay.a(scaler_650.o)
                                                  ../../../libIPLAY/lib//libdisplay.a(idu.o)
                                                  ../../../libIPLAY/lib//libperipheral.a(hal_mmcp.o)
Exception                                         ../../../libIPLAY/lib//libbios.a(agent.o)
                                                  ../../../libIPLAY/lib//libbios.a(exception.o)
ExceptionCheck                                    ../../../libIPLAY/lib//libRecord.a(record_task.o)
                                                  ../../../libIPLAY/lib//libavipacker.a(AVI_Stream.o)
ExceptionHandle                                   ../../../libIPLAY/lib//libavipacker.a(AVI_packerAPI.o)
                                                  ../../../libIPLAY/lib//libRecord.a(record_task.o)
ExceptionTagCheck                                 ../../../libIPLAY/lib//libos.a(cosmos.o)
ExceptionTagReister                               ../../../libIPLAY/lib//libos.a(cosmos.o)
                                                  ../../../libIPLAY/lib//libsystem.a(SystemDrive.o)
ExceptionTagRelease                               ../../../libIPLAY/lib//libos.a(cosmos.o)
                                                  ../object/ui_timer.o
Extract_Ipu_ImageScaling                          ../../../libIPLAY/lib//libmpapi.a(mpImageResizeApi.o)
Fat12_Format                                      ../../../libIPLAY/lib//libfile.a(Format.o)
                                                  ../object/main.o
Fat16_Format                                      ../../../libIPLAY/lib//libfile.a(Format.o)
                                                  ../object/main.o
Fat32_Format                                      ../../../libIPLAY/lib//libfile.a(Format.o)
                                                  ../object/main.o
FatCaching                                        ../../../libIPLAY/lib//libfile.a(drive.o)
                                                  ../../../libIPLAY/lib//libfile.a(file.o)
FdbCopy                                           ../../../libIPLAY/lib//libfile.a(dir.o)
                                                  ../../../libIPLAY/lib//libimage.a(jpegEncode.o)
                                                  ../../../libIPLAY/lib//libfile.a(file.o)
FileBrowserCheckCurDrive                          ../../../libIPLAY/lib//libfile.a(filebrowser.o)
FileBrowserCopyFile                               ../../../libIPLAY/lib//libfile.a(filebrowser.o)
FileBrowserDeleteFile                             ../../../libIPLAY/lib//libfile.a(filebrowser.o)
                                                  ../object/UI_FileSystem.o
                                                  ../object/xpgBrowser.o
FileBrowserGetCurDrive                            ../../../libIPLAY/lib//libfile.a(filebrowser.o)
FileBrowserGetCurFileType                         ../../../libIPLAY/lib//libfile.a(filebrowser.o)
FileBrowserGetCurIndex                            ../../../libIPLAY/lib//libfile.a(filebrowser.o)
FileBrowserGetFileName                            ../../../libIPLAY/lib//libfile.a(filebrowser.o)
FileBrowserGetFileType                            ../../../libIPLAY/lib//libfile.a(filebrowser.o)
FileBrowserGetTotalFile                           ../../../libIPLAY/lib//libfile.a(filebrowser.o)
                                                  ../object/xpgPhotoFunc.o
                                                  ../object/UI_FileSystem.o
                                                  ../object/xpgDrawSprite.o
FileBrowserInitExtArray                           ../../../libIPLAY/lib//libfile.a(filebrowser.o)
FileBrowserListAllFileName                        ../../../libIPLAY/lib//libfile.a(filebrowser.o)
FileBrowserResetFileList                          ../../../libIPLAY/lib//libfile.a(filebrowser.o)
                                                  ../object/xpgPhotoFunc.o
                                                  ../object/UI_FileSystem.o
                                                  ../object/xpgBrowser.o
                                                  ../object/xpgDriveFunc.o
FileBrowserScanFileList                           ../../../libIPLAY/lib//libfile.a(filebrowser.o)
                                                  ../object/xpgPhotoFunc.o
                                                  ../object/UI_FileSystem.o
                                                  ../object/xpgBrowser.o
FileBrowserSearchNextAudio                        ../../../libIPLAY/lib//libfile.a(filebrowser.o)
FileBrowserSearchNextImage                        ../../../libIPLAY/lib//libfile.a(filebrowser.o)
                                                  ../object/xpgBrowser.o
FileBrowser_GetCurImageFile                       ../../../libIPLAY/lib//libfile.a(filebrowser.o)
                                                  ../object/imageplayer.o
FileChain_AdjustSize_TrimExtraClusters            ../../../libIPLAY/lib//libfile.a(file.o)
FileChangeDirAndResearch                          ../../../libIPLAY/lib//libfile.a(filebrowser.o)
                                                  ../object/xpgBrowser.o
FileClose                                         ../../../libIPLAY/lib//libfile.a(file.o)
                                                  ../../../libIPLAY/lib//libimage.a(jpegEncode.o)
                                                  ../../../libIPLAY/lib//libxpg.a(xpg.o)
                                                  ../../../libIPLAY/lib//libavipacker.a(AVI_Packer.o)
                                                  ../../../libIPLAY/lib//libmpapi.a(mpStreamApi.o)
                                                  ../../../libIPLAY/lib//libsystem.a(SetTabFunc.o)
                                                  ../../../libIPLAY/lib//libsystem.a(McardDevInfo.o)
                                                  ../../../libIPLAY/lib//libfile.a(filebrowser.o)
                                                  ../object/xpgFunc.o
                                                  ../object/main.o
FileClose_NoWriteBack                             ../../../libIPLAY/lib//libfile.a(file.o)
                                                  ../../../libIPLAY/lib//libavipacker.a(AVI_packerAPI.o)
FileCopy                                          ../../../libIPLAY/lib//libfile.a(file.o)
                                                  ../../../libIPLAY/lib//libfile.a(filebrowser.o)
                                                  ../object/main.o
FileDirCaching                                    ../../../libIPLAY/lib//libfile.a(dir.o)
                                                  ../../../libIPLAY/lib//libfile.a(file.o)
FileExtRename                                     ../../../libIPLAY/lib//libfile.a(file.o)
FileExtSearch                                     ../../../libIPLAY/lib//libfile.a(file.o)
                                                  ../../../libIPLAY/lib//libfile.a(filebrowser.o)
                                                  ../object/main.o
FileExtSearchOpen                                 ../../../libIPLAY/lib//libfile.a(file.o)
                                                  ../object/main.o
FileForceSync                                     ../../../libIPLAY/lib//libfile.a(file.o)
                                                  ../../../libIPLAY/lib//libavipacker.a(AVI_packerAPI.o)
FileGetCurLyricInfo                               ../../../libIPLAY/lib//libfile.a(filebrowser.o)
FileGetCurSearchInfo                              ../../../libIPLAY/lib//libfile.a(filebrowser.o)
                                                  ../object/xpgBrowser.o
FileGetDate_for_FATxx                             ../../../libIPLAY/lib//libfile.a(file.o)
FileGetLongName                                   ../../../libIPLAY/lib//libfile.a(file.o)
                                                  ../../../libIPLAY/lib//libimage.a(jpegEncode.o)
                                                  ../../../libIPLAY/lib//libfile.a(filebrowser.o)
FileGetMediaType                                  ../../../libIPLAY/lib//libfile.a(file.o)
                                                  ../../../libIPLAY/lib//libfile.a(filebrowser.o)
FileGetSearchInfo                                 ../../../libIPLAY/lib//libfile.a(filebrowser.o)
                                                  ../object/xpgBrowser.o
FileGetTime_for_FATxx                             ../../../libIPLAY/lib//libfile.a(file.o)
FileListAddCurIndex                               ../../../libIPLAY/lib//libfile.a(filebrowser.o)
                                                  ../object/xpgBrowser.o
FileListOpen                                      ../../../libIPLAY/lib//libfile.a(file.o)
                                                  ../../../libIPLAY/lib//libimage.a(jpegEncode.o)
                                                  ../../../libIPLAY/lib//libfile.a(filebrowser.o)
                                                  ../object/main.o
FileListSetCurIndex                               ../../../libIPLAY/lib//libfile.a(filebrowser.o)
                                                  ../object/xpgPhotoFunc.o
                                                  ../object/UI_FileSystem.o
                                                  ../object/xpgBrowser.o
FileOpen                                          ../../../libIPLAY/lib//libfile.a(file.o)
                                                  ../../../libIPLAY/lib//libsystem.a(SetTabFunc.o)
                                                  ../../../libIPLAY/lib//libsystem.a(McardDevInfo.o)
                                                  ../object/UI_FileSystem.o
FilePosGet                                        ../../../libIPLAY/lib//libfile.a(file.o)
                                                  ../../../libIPLAY/lib//libavipacker.a(AVI_packerAPI.o)
                                                  ../../../libIPLAY/lib//libmpapi.a(mpStreamApi.o)
FileRead                                          ../../../libIPLAY/lib//libfile.a(file.o)
                                                  ../../../libIPLAY/lib//libxpg.a(xpg.o)
                                                  ../../../libIPLAY/lib//libavipacker.a(AVI_packerAPI.o)
                                                  ../../../libIPLAY/lib//libmpapi.a(mpStreamApi.o)
                                                  ../../../libIPLAY/lib//libsystem.a(SetTabFunc.o)
                                                  ../../../libIPLAY/lib//libsystem.a(McardDevInfo.o)
                                                  ../object/isp.o
FileSearch                                        ../../../libIPLAY/lib//libfile.a(file.o)
                                                  ../../../libIPLAY/lib//libsystem.a(SetTabFunc.o)
                                                  ../../../libIPLAY/lib//libsystem.a(McardDevInfo.o)
                                                  ../../../libIPLAY/lib//libfile.a(dir.o)
                                                  ../object/UI_FileSystem.o
FileSearchLN                                      ../../../libIPLAY/lib//libfile.a(file.o)
                                                  ../../../libIPLAY/lib//libfile.a(dir.o)
                                                  ../object/UI_FileSystem.o
FileSetDate_for_FATxx                             ../../../libIPLAY/lib//libfile.a(file.o)
                                                  ../../../libIPLAY/lib//libfile.a(Format.o)
                                                  ../../../libIPLAY/lib//libfile.a(dir.o)
FileSetTime_for_FATxx                             ../../../libIPLAY/lib//libfile.a(file.o)
                                                  ../../../libIPLAY/lib//libfile.a(Format.o)
                                                  ../../../libIPLAY/lib//libfile.a(dir.o)
FileSizeGet                                       ../../../libIPLAY/lib//libfile.a(file.o)
                                                  ../../../libIPLAY/lib//libxpg.a(xpg.o)
                                                  ../../../libIPLAY/lib//libmpapi.a(mpStreamApi.o)
                                                  ../../../libIPLAY/lib//libsystem.a(SetTabFunc.o)
                                                  ../../../libIPLAY/lib//libsystem.a(McardDevInfo.o)
                                                  ../object/isp.o
FileSort                                          ../../../libIPLAY/lib//libfile.a(file.o)
FileSystemInit                                    ../../../libIPLAY/lib//libfile.a(drive.o)
                                                  ../object/main.o
FileUiUpdateIconAniFunPtrRegister                 ../../../libIPLAY/lib//libfile.a(file.o)
FileWrite                                         ../../../libIPLAY/lib//libfile.a(file.o)
                                                  ../../../libIPLAY/lib//libavipacker.a(AVI_packerAPI.o)
                                                  ../../../libIPLAY/lib//libavipacker.a(AVI_Stream.o)
                                                  ../../../libIPLAY/lib//libsystem.a(SetTabFunc.o)
                                                  ../../../libIPLAY/lib//libsystem.a(McardDevInfo.o)
                                                  ../object/xpgFunc.o
FileWrite_withWriteBack_FileSize                  ../../../libIPLAY/lib//libfile.a(file.o)
                                                  ../../../libIPLAY/lib//libavipacker.a(AVI_Utility.o)
File_ReleaseSpace_For_OverwriteContent            ../../../libIPLAY/lib//libfile.a(file.o)
                                                  ../../../libIPLAY/lib//libavipacker.a(AVI_packerAPI.o)
FillUniNumber                                     ../../../libIPLAY/lib//libfile.a(file.o)
                                                  ../../../libIPLAY/lib//libfile.a(dir.o)
FirstNode                                         ../../../libIPLAY/lib//libfile.a(dir.o)
FitToOriginRatio                                  ../../../libIPLAY/lib//libmpapi.a(mpImageResizeApi.o)
FlushAllCache                                     ../../../libIPLAY/lib//libbios.a(startup.o)
FlushDataCache                                    ../../../libIPLAY/lib//libbios.a(startup.o)
                                                  ../../../libIPLAY/lib//libos.a(memory.o)
FontInit                                          ../../../libIPLAY/lib//libdisplay.a(fontdisp.o)
                                                  ../object/main.o
Font_Draw                                         ../../../libIPLAY/lib//libdisplay.a(Font.o)
                                                  ../../../libIPLAY/lib//libdisplay.a(imgString.o)
Font_Draw_OSD                                     ../../../libIPLAY/lib//libdisplay.a(Font.o)
                                                  ../../../libIPLAY/lib//libdisplay.a(osd.o)
FreeFileHandleCountGet                            ../../../libIPLAY/lib//libfile.a(file.o)
FreeTaskUserMem                                   ../../../libIPLAY/lib//libos.a(memory.o)
                                                  ../../../libIPLAY/lib//libos.a(task.o)
Free_Cache_BGWin                                  ../object/xpgFunc.o
Fseek                                             ../../../libIPLAY/lib//libfile.a(file.o)
                                                  ../../../libIPLAY/lib//libavipacker.a(AVI_Packer.o)
                                                  ../../../libIPLAY/lib//libavipacker.a(AVI_packerAPI.o)
                                                  ../../../libIPLAY/lib//libsystem.a(SetTabFunc.o)
GT911_I2C_ReadTouchData                           ../../../libIPLAY/lib//libtouchctrl.a(tc_gt911.o)
GeneratePLLClockTab                               ../../../libIPLAY/lib//libMcard.a(Uti.o)
                                                  ../../../libIPLAY/lib//libMcard.a(mcard.o)
GetAsciiShortFilenameOfCurrentNode                ../../../libIPLAY/lib//libfile.a(file.o)
GetAudioFileStatistics                            ../../../libIPLAY/lib//libfile.a(file.o)
GetBackgroundLevel                                ../object/xpgProcSensorData.o
GetBitByOffset                                    ../../../libIPLAY/lib//libmpapi.a(mpUtil.o)
GetCachWinNum                                     ../object/xpgProcSensorData.o
GetChainTotalSizeByTraverseFatTable               ../../../libIPLAY/lib//libfile.a(chain.o)
                                                  ../../../libIPLAY/lib//libfile.a(dir.o)
GetCurFileSortingBasis                            ../../../libIPLAY/lib//libfile.a(file.o)
GetCurImgOutputType                               ../../../libIPLAY/lib//libmpapi.a(mpImageFileApi.o)
GetCurrIduFontID                                  ../../../libIPLAY/lib//libdisplay.a(fontdisp.o)
GetCurrOsdFontID                                  ../../../libIPLAY/lib//libdisplay.a(fontdisp.o)
GetDefaultSetupMenuValue                          ../object/Setup.o
GetDeletedNode                                    ../../../libIPLAY/lib//libfile.a(dir.o)
                                                  ../../../libIPLAY/lib//libfile.a(file.o)
GetDigitPerTen                                    ../object/xpgDrawSprite.o
GetDrvPartitionInfoFromMBR                        ../../../libIPLAY/lib//libfile.a(drive.o)
                                                  ../../../libIPLAY/lib//libfile.a(Format.o)
                                                  ../object/main.o
GetFiberBlackLevel                                ../object/xpgProcSensorData.o
GetFileAttributeAndTimeInfoFromFDB                ../../../libIPLAY/lib//libfile.a(file.o)
GetFilenameOfCurrentNode                          ../../../libIPLAY/lib//libfile.a(file.o)
                                                  ../../../libIPLAY/lib//libfile.a(filebrowser.o)
GetFreeFileHandle                                 ../../../libIPLAY/lib//libfile.a(file.o)
GetGPIOPinIndex                                   ../../../libIPLAY/lib//libperipheral.a(hal_gpio.o)
                                                  ../../../libIPLAY/lib//libtouchctrl.a(tc_gt911.o)
GetGPIOValue                                      ../../../libIPLAY/lib//libperipheral.a(hal_gpio.o)
                                                  ../../../libIPLAY/lib//libtouchctrl.a(tc_gt911.o)
GetGpioIntIndexByGpioPinNum                       ../../../libIPLAY/lib//libperipheral.a(hal_gpio.o)
                                                  ../../../libIPLAY/lib//libtouchctrl.a(tc_gt911.o)
GetIduFontDataStartAddress                        ../../../libIPLAY/lib//libdisplay.a(fontdisp.o)
GetImageFileStatistics                            ../../../libIPLAY/lib//libfile.a(file.o)
GetMaxDigitName                                   ../object/UI_FileSystem.o
GetMcardClock                                     ../../../libIPLAY/lib//libMcard.a(Uti.o)
                                                  ../../../libIPLAY/lib//libMcard.a(SD.o)
                                                  ../../../libIPLAY/lib//libMcard.a(NandPhyAdv_Mp650.o)
GetMcardDevTag4Usb                                ../../../libIPLAY/lib//libMcard.a(mcard.o)
GetMotoIdxByFiberIdx                              ../object/xpgProcSensorData.o
GetMovieFileStatistics                            ../../../libIPLAY/lib//libfile.a(file.o)
GetNandAvailEccBit                                ../../../libIPLAY/lib//libMcard.a(NandPhyAdv_Mp650.o)
                                                  ../../../libIPLAY/lib//libMcard.a(NandFTL.o)
GetNandGeometry                                   ../../../libIPLAY/lib//libMcard.a(NandPhyAdv_Mp650.o)
                                                  ../../../libIPLAY/lib//libMcard.a(NandFTL.o)
GetNandLogAddr                                    ../../../libIPLAY/lib//libMcard.a(NandPhyAdv_Mp650.o)
                                                  ../../../libIPLAY/lib//libMcard.a(NandFTL.o)
GetNewCaptureHandle                               ../object/xpgFunc.o
GetNewNode                                        ../../../libIPLAY/lib//libfile.a(dir.o)
                                                  ../../../libIPLAY/lib//libfile.a(file.o)
GetOsdFontDataStartAddress                        ../../../libIPLAY/lib//libdisplay.a(fontdisp.o)
GetRatioOver                                      ../../../libIPLAY/lib//libimage.a(jpeg_hal.o)
GetReallyData                                     ../object/xpgProcSensorData.o
GetRelativeMs                                     ../../../libIPLAY/lib//libsystem.a(global612.o)
GetRootDirSize                                    ../../../libIPLAY/lib//libfile.a(dir.o)
                                                  ../../../libIPLAY/lib//libfile.a(file.o)
GetScalerPara                                     ../../../libIPLAY/lib//libdisplay.a(scaler_650.o)
GetScreenOffset                                   ../../../libIPLAY/lib//libmpapi.a(mpImageApi.o)
GetSetupMenuValue                                 ../object/Setup.o
                                                  ../object/xpgProcSensorData.o
GetSysTime                                        ../../../libIPLAY/lib//libos.a(systimer.o)
                                                  ../../../libIPLAY/lib//libxpg.a(xpgUi.o)
                                                  ../../../libIPLAY/lib//libRecord.a(record_task.o)
                                                  ../../../libIPLAY/lib//libavipacker.a(AVI_packerAPI.o)
                                                  ../../../libIPLAY/lib//libmpapi.a(mpUtil.o)
                                                  ../../../libIPLAY/lib//libimage.a(jpeg_hal.o)
                                                  ../../../libIPLAY/lib//libsensor.a(sensor_manager.o)
                                                  ../../../libIPLAY/lib//libdisplay.a(imgWin.o)
                                                  ../../lib//libui.a(uiTouchCtrller.o)
                                                  ../../../libIPLAY/lib//libsystem.a(global612.o)
                                                  ../../../libIPLAY/lib//libperipheral.a(hal_mmcp.o)
                                                  ../../../libIPLAY/lib//libMcard.a(Uti.o)
                                                  ../../../libIPLAY/lib//libMcard.a(SdPhy_Mp650.o)
                                                  ../../../libIPLAY/lib//libMcard.a(SD.o)
                                                  ../../../libIPLAY/lib//libMcard.a(NandPhyAdv_Mp650.o)
                                                  ../../../libIPLAY/lib//libMcard.a(NandFTL.o)
                                                  ../../../libIPLAY/lib//libMcard.a(mcard.o)
                                                  ../object/ui_timer.o
GetSystemErrMsg                                   ../../../libIPLAY/lib//libsystem.a(global612.o)
GetUartChar                                       ../../../libIPLAY/lib//libmpapi.a(mpTrace.o)
                                                  ../../../libIPLAY/lib//libbios.a(agent.o)
GetUserBlkStart                                   ../../../libIPLAY/lib//libbios.a(startup.o)
                                                  ../../../libIPLAY/lib//libsystem.a(SystemMemory.o)
Get_Display_flag                                  ../../../libIPLAY/lib//libsensor.a(sensor_manager.o)
Get_jpegEcodeQualityLevel                         ../../../libIPLAY/lib//libimage.a(jpegEncode.o)
Global_Sensor_Initial_NT99140                     ../../../libIPLAY/lib//libsensor.a(sensor_NT99140.o)
                                                  ../../../libIPLAY/lib//libsensor.a(sensor_manager.o)
Gpio_Config2GpioFunc                              ../../../libIPLAY/lib//libperipheral.a(hal_gpio.o)
                                                  ../../../libIPLAY/lib//libtouchctrl.a(tc_gt911.o)
                                                  ../object/xpgProcSensorData.o
Gpio_ConfiguraionSet                              ../../../libIPLAY/lib//libperipheral.a(hal_gpio.o)
                                                  ../../../libIPLAY/lib//libbios.a(MP650_uart.o)
                                                  ../../../libIPLAY/lib//libdisplay.a(idu.o)
                                                  ../object/xpgProcSensorData.o
Gpio_ConfigurationGet                             ../../../libIPLAY/lib//libperipheral.a(hal_gpio.o)
Gpio_DataGet                                      ../../../libIPLAY/lib//libperipheral.a(hal_gpio.o)
                                                  ../../../libIPLAY/lib//libtouchctrl.a(tc_gt911.o)
Gpio_DataSet                                      ../../../libIPLAY/lib//libperipheral.a(hal_gpio.o)
Gpio_DefaultSettingSet                            ../../../libIPLAY/lib//libperipheral.a(hal_gpio.o)
Gpio_DirectionGet                                 ../../../libIPLAY/lib//libperipheral.a(hal_gpio.o)
Gpio_GpioInstallStatus                            ../../../libIPLAY/lib//libperipheral.a(hal_gpio.o)
Gpio_IntCallbackFunRegister                       ../../../libIPLAY/lib//libperipheral.a(hal_gpio.o)
                                                  ../../../libIPLAY/lib//libtouchctrl.a(tc_gt911.o)
                                                  ../../../libIPLAY/lib//libMcard.a(mcard.o)
Gpio_IntConfig                                    ../../../libIPLAY/lib//libperipheral.a(hal_gpio.o)
                                                  ../../../libIPLAY/lib//libtouchctrl.a(tc_gt911.o)
                                                  ../../../libIPLAY/lib//libMcard.a(mcard.o)
Gpio_IntConfigGet                                 ../../../libIPLAY/lib//libperipheral.a(hal_gpio.o)
                                                  ../../../libIPLAY/lib//libMcard.a(mcard.o)
Gpio_IntDisable                                   ../../../libIPLAY/lib//libperipheral.a(hal_gpio.o)
Gpio_IntEnable                                    ../../../libIPLAY/lib//libperipheral.a(hal_gpio.o)
                                                  ../../../libIPLAY/lib//libtouchctrl.a(tc_gt911.o)
                                                  ../../../libIPLAY/lib//libMcard.a(mcard.o)
Gpio_IntInit                                      ../../../libIPLAY/lib//libperipheral.a(hal_gpio.o)
                                                  ../object/main.o
Gpio_ValueGet                                     ../../../libIPLAY/lib//libperipheral.a(hal_gpio.o)
                                                  ../object/xpgProcSensorData.o
HHMMSSExceptionTaskDeInit                         ../object/ui_timer.o
HUartA_PinMultiplexerEnable                       ../../../libIPLAY/lib//libbios.a(MP650_uart.o)
                                                  ../../../libIPLAY/lib//libmpapi.a(mpTrace.o)
HUartBufferRead                                   ../../../libIPLAY/lib//libbios.a(MP650_uart.o)
                                                  ../../../libIPLAY/lib//libmpapi.a(mpTrace.o)
HUartBufferWrite                                  ../../../libIPLAY/lib//libbios.a(MP650_uart.o)
                                                  ../../../libIPLAY/lib//libmpapi.a(mpTrace.o)
HUartClearCallBackFunc                            ../../../libIPLAY/lib//libbios.a(MP650_uart.o)
HUartClkSourceSel                                 ../../../libIPLAY/lib//libbios.a(MP650_uart.o)
HUartDmaRead                                      ../../../libIPLAY/lib//libbios.a(MP650_uart.o)
                                                  ../../../libIPLAY/lib//libmpapi.a(mpTrace.o)
HUartDmaWrite                                     ../../../libIPLAY/lib//libbios.a(MP650_uart.o)
                                                  ../../../libIPLAY/lib//libmpapi.a(mpTrace.o)
HUartFollowCtrl                                   ../../../libIPLAY/lib//libbios.a(MP650_uart.o)
HUartGetChar                                      ../../../libIPLAY/lib//libbios.a(MP650_uart.o)
                                                  ../../../libIPLAY/lib//libmpapi.a(mpTrace.o)
HUartInit                                         ../../../libIPLAY/lib//libbios.a(MP650_uart.o)
                                                  ../../../libIPLAY/lib//libmpapi.a(mpTrace.o)
HUartIntDisable                                   ../../../libIPLAY/lib//libbios.a(MP650_uart.o)
                                                  ../../../libIPLAY/lib//libmpapi.a(mpTrace.o)
HUartIntEnable                                    ../../../libIPLAY/lib//libbios.a(MP650_uart.o)
                                                  ../../../libIPLAY/lib//libmpapi.a(mpTrace.o)
HUartOutText                                      ../../../libIPLAY/lib//libbios.a(MP650_uart.o)
                                                  ../../../libIPLAY/lib//libmpapi.a(mpTrace.o)
HUartOutValue                                     ../../../libIPLAY/lib//libbios.a(MP650_uart.o)
HUartOutValueDec                                  ../../../libIPLAY/lib//libbios.a(MP650_uart.o)
HUartOutValueHex                                  ../../../libIPLAY/lib//libbios.a(MP650_uart.o)
                                                  ../../../libIPLAY/lib//libmpapi.a(mpTrace.o)
HUartPutChar                                      ../../../libIPLAY/lib//libbios.a(MP650_uart.o)
                                                  ../../../libIPLAY/lib//libmpapi.a(mpTrace.o)
HUartPutCharDrop                                  ../../../libIPLAY/lib//libbios.a(MP650_uart.o)
                                                  ../../../libIPLAY/lib//libmpapi.a(mpTrace.o)
HUartRegisterCallBackFunc                         ../../../libIPLAY/lib//libbios.a(MP650_uart.o)
HUartWaitStatus                                   ../../../libIPLAY/lib//libbios.a(MP650_uart.o)
                                                  ../../../libIPLAY/lib//libmpapi.a(mpTrace.o)
HUartWaitTxComplete                               ../../../libIPLAY/lib//libbios.a(MP650_uart.o)
                                                  ../../../libIPLAY/lib//libmpapi.a(mpTrace.o)
HandlerEnable                                     ../../../libIPLAY/lib//libbios.a(agent.o)
HeiTi16_FastIndexTab                              ../../../libIPLAY/lib//libdisplay.a(fontdisp.o)
HeiTi16_FontTab                                   ../../../libIPLAY/lib//libdisplay.a(fontdisp.o)
HeiTi16_fontdata                                  ../../../libIPLAY/lib//libdisplay.a(fontdisp.o)
HeiTi20_FastIndexTab                              ../../../libIPLAY/lib//libdisplay.a(fontdisp.o)
HeiTi20_FontTab                                   ../../../libIPLAY/lib//libdisplay.a(fontdisp.o)
HeiTi20_fontdata                                  ../../../libIPLAY/lib//libdisplay.a(fontdisp.o)
HexString                                         ../../../libIPLAY/lib//libutil.a(util_CharString.o)
HorizontalOffset                                  ../../../libIPLAY/lib//libmpapi.a(mpImageApi.o)
I2CM_GT911_RdReg                                  ../../../libIPLAY/lib//libtouchctrl.a(tc_gt911.o)
I2CM_GT911_RdRegisters                            ../../../libIPLAY/lib//libtouchctrl.a(tc_gt911.o)
I2CM_GT911_WtRegisters                            ../../../libIPLAY/lib//libtouchctrl.a(tc_gt911.o)
I2CM_Touch_RdReg                                  ../../../libIPLAY/lib//libtouchctrl.a(tc_gt911.o)
IDU_Show_BG_Color_Black                           ../../../libIPLAY/lib//libdisplay.a(idu.o)
IDU_Show_Original_Color                           ../../../libIPLAY/lib//libdisplay.a(idu.o)
                                                  ../../../libIPLAY/lib//libdisplay.a(scaler_650.o)
IODelay                                           ../../../libIPLAY/lib//libmpapi.a(mpUtil.o)
                                                  ../../../libIPLAY/lib//libtouchctrl.a(tc_gt911.o)
                                                  ../../../libIPLAY/lib//libsensor.a(sensor_NT99140.o)
                                                  ../../../libIPLAY/lib//libsensor.a(sensor_driver_NT99140.o)
                                                  ../../../libIPLAY/lib//libdisplay.a(scaler_650.o)
                                                  ../../../libIPLAY/lib//libdisplay.a(idu.o)
                                                  ../../../libIPLAY/lib//libbios.a(hal_Ckg.o)
                                                  ../../../libIPLAY/lib//libbios.a(agent.o)
ISP_ChksumVerify                                  ../object/isp.o
                                                  ../object/main.o
ISP_GetNandReservedSize                           ../../../libIPLAY/lib//libsystem.a(ISP_Nand.o)
                                                  ../../../libIPLAY/lib//libMcard.a(NandFTL.o)
ISP_GetResource                                   ../object/isp.o
ISP_GetResourceSize                               ../object/isp.o
ISP_NandBlockRegister                             ../../../libIPLAY/lib//libsystem.a(ISP_Nand.o)
ISP_NandInit                                      ../../../libIPLAY/lib//libsystem.a(ISP_Nand.o)
                                                  ../object/main.o
ISP_SetNandReservedSize                           ../../../libIPLAY/lib//libsystem.a(ISP_Nand.o)
                                                  ../../../libIPLAY/lib//libfile.a(drive.o)
ISP_UpDateCode                                    ../object/isp.o
                                                  ../object/main.o
IdleFuncRegister                                  ../../../libIPLAY/lib//libos.a(cosmos.o)
IdleFuncRelease                                   ../../../libIPLAY/lib//libos.a(cosmos.o)
IduFontGetBitPerPixel                             ../../../libIPLAY/lib//libdisplay.a(fontdisp.o)
                                                  ../../../libIPLAY/lib//libdisplay.a(imgString.o)
IduFontGetBlankWidth                              ../../../libIPLAY/lib//libdisplay.a(fontdisp.o)
                                                  ../../../libIPLAY/lib//libdisplay.a(Font.o)
                                                  ../../../libIPLAY/lib//libdisplay.a(imgString.o)
IduFontGetCharBitmapAddr                          ../../../libIPLAY/lib//libdisplay.a(fontdisp.o)
                                                  ../../../libIPLAY/lib//libdisplay.a(imgString.o)
IduFontGetCharWidth                               ../../../libIPLAY/lib//libdisplay.a(fontdisp.o)
IduFontGetFontAlignment                           ../../../libIPLAY/lib//libdisplay.a(fontdisp.o)
IduFontGetMaxHeight                               ../../../libIPLAY/lib//libdisplay.a(fontdisp.o)
IduFontIsNewTabFont                               ../../../libIPLAY/lib//libdisplay.a(fontdisp.o)
IduInit                                           ../../../libIPLAY/lib//libdisplay.a(idu.o)
IduSetFontSize                                    ../object/xpgString.o
Idu_Bypass2DMA                                    ../../../libIPLAY/lib//libdisplay.a(idu.o)
Idu_Cache_BGWin                                   ../object/xpgFunc.o
Idu_ChgWin                                        ../../../libIPLAY/lib//libdisplay.a(idu.o)
                                                  ../../../libIPLAY/lib//libxpg.a(xpgDraw.o)
                                                  ../../../libIPLAY/lib//libimage.a(IMG_jpeg.o)
                                                  ../object/xpgProcSensorData.o
Idu_Chg_422_Mode                                  ../../../libIPLAY/lib//libdisplay.a(idu.o)
Idu_Chg_444_Mode                                  ../../../libIPLAY/lib//libdisplay.a(idu.o)
Idu_ChkBusWidth                                   ../../../libIPLAY/lib//libdisplay.a(idu.o)
Idu_ClockInit                                     ../../../libIPLAY/lib//libdisplay.a(idu.o)
Idu_DMA2Bypass                                    ../../../libIPLAY/lib//libdisplay.a(idu.o)
                                                  ../../../libIPLAY/lib//libdisplay.a(scaler_650.o)
Idu_DTDInit                                       ../../../libIPLAY/lib//libdisplay.a(idu.o)
Idu_DTDOff                                        ../../../libIPLAY/lib//libdisplay.a(idu.o)
Idu_DTD_VG_Off                                    ../../../libIPLAY/lib//libdisplay.a(idu.o)
Idu_DTD_VG_On                                     ../../../libIPLAY/lib//libdisplay.a(idu.o)
Idu_DisplayON                                     ../../../libIPLAY/lib//libdisplay.a(idu.o)
Idu_DisplayOff                                    ../../../libIPLAY/lib//libdisplay.a(idu.o)
Idu_FontColorSet                                  ../../../libIPLAY/lib//libdisplay.a(imgString.o)
Idu_GetCache_BGWin                                ../object/xpgFunc.o
Idu_GetCurrWin                                    ../../../libIPLAY/lib//libdisplay.a(imgWin.o)
                                                  ../../../libIPLAY/lib//libxpg.a(xpgDraw.o)
                                                  ../../../libIPLAY/lib//libmpapi.a(mpImageFileApi.o)
                                                  ../../../libIPLAY/lib//libmpapi.a(mpTrace.o)
                                                  ../../../libIPLAY/lib//libsensor.a(sensor_NT99140.o)
                                                  ../../../libIPLAY/lib//libsensor.a(sensor_manager.o)
                                                  ../../../libIPLAY/lib//libdisplay.a(osd4.o)
                                                  ../../../libIPLAY/lib//libdisplay.a(osd.o)
                                                  ../../../libIPLAY/lib//libdisplay.a(idu.o)
                                                  ../object/xpgPhotoFunc.o
                                                  ../object/xpgProcSensorData.o
                                                  ../object/xpgBrowser.o
                                                  ../object/xpgFunc.o
                                                  ../object/main.o
Idu_GetDtdRegSetting                              ../../../libIPLAY/lib//libdisplay.a(idu.o)
Idu_GetFontColor                                  ../../../libIPLAY/lib//libdisplay.a(imgString.o)
Idu_GetIs444Mode                                  ../../../libIPLAY/lib//libdisplay.a(idu.o)
Idu_GetNextWin                                    ../../../libIPLAY/lib//libdisplay.a(imgWin.o)
                                                  ../../../libIPLAY/lib//libimage.a(jpegEncode.o)
                                                  ../../../libIPLAY/lib//libxpg.a(xpgDraw.o)
                                                  ../../../libIPLAY/lib//libmpapi.a(mpImageFileApi.o)
                                                  ../../../libIPLAY/lib//libimage.a(IMG_jpeg.o)
                                                  ../../../libIPLAY/lib//libsensor.a(sensor_NT99140.o)
                                                  ../object/xpgPhotoFunc.o
                                                  ../object/xpgProcSensorData.o
                                                  ../object/xpgFunc.o
Idu_GetOsdWin                                     ../../../libIPLAY/lib//libdisplay.a(osd.o)
                                                  ../../../libIPLAY/lib//libdisplay.a(osd4.o)
Idu_GetSystemFontColor                            ../../../libIPLAY/lib//libdisplay.a(imgString.o)
Idu_GetWinData                                    ../../../libIPLAY/lib//libdisplay.a(imgWin.o)
Idu_InternalATCONInit                             ../../../libIPLAY/lib//libdisplay.a(idu.o)
Idu_InternelTCONInit                              ../../../libIPLAY/lib//libdisplay.a(idu.o)
Idu_OSDInit                                       ../../../libIPLAY/lib//libdisplay.a(osd.o)
                                                  ../../../libIPLAY/lib//libdisplay.a(idu.o)
Idu_OSDPrint                                      ../../../libIPLAY/lib//libdisplay.a(osd.o)
Idu_OSDWinInit                                    ../../../libIPLAY/lib//libdisplay.a(osd.o)
Idu_OsdChangeBlending                             ../../../libIPLAY/lib//libdisplay.a(osd4.o)
Idu_OsdDMAInit                                    ../../../libIPLAY/lib//libdisplay.a(osd.o)
Idu_OsdDMAOn                                      ../../../libIPLAY/lib//libdisplay.a(osd.o)
Idu_OsdDrawBar                                    ../../../libIPLAY/lib//libdisplay.a(osd.o)
Idu_OsdErase                                      ../../../libIPLAY/lib//libdisplay.a(osd.o)
                                                  ../object/xpgProcSensorData.o
                                                  ../object/xpgFunc.o
Idu_OsdOnOff                                      ../../../libIPLAY/lib//libdisplay.a(osd.o)
                                                  ../../../libIPLAY/lib//libdisplay.a(idu.o)
                                                  ../object/main.o
Idu_OsdPaintArea                                  ../../../libIPLAY/lib//libdisplay.a(osd4.o)
                                                  ../../../libIPLAY/lib//libdisplay.a(osd.o)
                                                  ../object/xpgFunc.o
Idu_OsdPaintVColorBar                             ../../../libIPLAY/lib//libdisplay.a(osd4.o)
Idu_OsdPaletteInit                                ../../../libIPLAY/lib//libdisplay.a(osd4.o)
Idu_OsdPutChar_1X                                 ../../../libIPLAY/lib//libdisplay.a(osd.o)
                                                  ../../../libIPLAY/lib//libdisplay.a(Font.o)
Idu_OsdPutChar_4X                                 ../../../libIPLAY/lib//libdisplay.a(osd.o)
Idu_OsdPutRectangle                               ../../../libIPLAY/lib//libdisplay.a(osd.o)
Idu_OsdPutStrWithSize                             ../../../libIPLAY/lib//libdisplay.a(osd.o)
Idu_OsdSetDefaultPalette                          ../../../libIPLAY/lib//libdisplay.a(osd.o)
                                                  ../object/main.o
Idu_OsdSetPalette                                 ../../../libIPLAY/lib//libdisplay.a(osd.o)
                                                  ../../../libIPLAY/lib//libxpg.a(xpgDraw.o)
Idu_PaintWin                                      ../../../libIPLAY/lib//libdisplay.a(imgWin.o)
                                                  ../../../libIPLAY/lib//libmpapi.a(mpImageApi.o)
                                                  ../../../libIPLAY/lib//libdisplay.a(idu.o)
Idu_PaintWinArea                                  ../../../libIPLAY/lib//libdisplay.a(imgWin.o)
                                                  ../object/xpgDrawSprite.o
Idu_PaintWinData                                  ../../../libIPLAY/lib//libdisplay.a(imgWin.o)
Idu_PrintStringWithSize                           ../../../libIPLAY/lib//libdisplay.a(imgString.o)
                                                  ../../../libIPLAY/lib//libmpapi.a(mpTrace.o)
                                                  ../object/xpgDrawSprite.o
Idu_RGB24ModeInit                                 ../../../libIPLAY/lib//libdisplay.a(idu.o)
Idu_ResetWinClipRegion                            ../../../libIPLAY/lib//libdisplay.a(imgWin.o)
                                                  ../../../libIPLAY/lib//libmpapi.a(mpImageApi.o)
Idu_SetCSC                                        ../../../libIPLAY/lib//libdisplay.a(idu.o)
Idu_SetContrastBrightness                         ../../../libIPLAY/lib//libdisplay.a(idu.o)
Idu_SetDACClk                                     ../../../libIPLAY/lib//libdisplay.a(idu.o)
Idu_SetFontColor                                  ../../../libIPLAY/lib//libdisplay.a(imgString.o)
Idu_SetFontYUV                                    ../../../libIPLAY/lib//libdisplay.a(imgString.o)
Idu_SetWinClipRegion                              ../../../libIPLAY/lib//libdisplay.a(imgWin.o)
                                                  ../../../libIPLAY/lib//libxpg.a(xpgDraw.o)
Idu_TableSearch                                   ../../../libIPLAY/lib//libdisplay.a(idu.o)
                                                  ../../../libIPLAY/lib//libsystem.a(SystemConfig.o)
Idu_WaitBufferEnd                                 ../../../libIPLAY/lib//libdisplay.a(idu.o)
                                                  ../../../libIPLAY/lib//libxpg.a(xpg.o)
Idu_WinDmaInit                                    ../../../libIPLAY/lib//libdisplay.a(idu.o)
ImageAllocSourceBuffer                            ../../../libIPLAY/lib//libmpapi.a(mpImageFileApi.o)
                                                  ../object/imageplayer.o
ImageAllocTargetBuffer                            ../../../libIPLAY/lib//libmpapi.a(mpImageFileApi.o)
ImageDraw                                         ../object/imageplayer.o
                                                  ../object/xpgPhotoFunc.o
                                                  ../object/xpgDrawSprite.o
ImageDraw_Decode                                  ../object/imageplayer.o
ImageDraw_FitToFull                               ../object/imageplayer.o
ImageDraw_FitToOrigin                             ../../../libIPLAY/lib//libmpapi.a(mpImageResizeApi.o)
                                                  ../../../libIPLAY/lib//libimage.a(IMG_jpeg.o)
                                                  ../object/imageplayer.o
ImageDraw_FitToWidth                              ../object/imageplayer.o
ImageFile_CheckSize                               ../../../libIPLAY/lib//libmpapi.a(mpImageFileApi.o)
ImageFile_Close                                   ../../../libIPLAY/lib//libmpapi.a(mpImageFileApi.o)
                                                  ../object/imageplayer.o
ImageFile_DecodeFile                              ../../../libIPLAY/lib//libmpapi.a(mpImageFileApi.o)
                                                  ../object/imageplayer.o
ImageFile_DecodeFromBuffer                        ../../../libIPLAY/lib//libmpapi.a(mpImageFileApi.o)
ImageFile_DecodeImage                             ../../../libIPLAY/lib//libmpapi.a(mpImageFileApi.o)
ImageFile_DecodeThumb                             ../../../libIPLAY/lib//libmpapi.a(mpImageFileApi.o)
ImageFile_Decoder_Init                            ../../../libIPLAY/lib//libmpapi.a(mpImageFileApi.o)
ImageFile_Encode_Img2Jpeg                         ../../../libIPLAY/lib//libmpapi.a(mpImageFileApi.o)
                                                  ../object/xpgFunc.o
ImageFile_Encode_Img2Jpeg_WithQT                  ../../../libIPLAY/lib//libmpapi.a(mpImageFileApi.o)
ImageFile_GetCurImageFile                         ../../../libIPLAY/lib//libmpapi.a(mpImageFileApi.o)
ImageFile_GetImageFormat                          ../../../libIPLAY/lib//libmpapi.a(mpImageFileApi.o)
ImageFile_GetImageHeight                          ../../../libIPLAY/lib//libmpapi.a(mpImageFileApi.o)
ImageFile_GetImageSize                            ../../../libIPLAY/lib//libmpapi.a(mpImageFileApi.o)
ImageFile_GetImageWidth                           ../../../libIPLAY/lib//libmpapi.a(mpImageFileApi.o)
ImageFile_GetTargetBuffer                         ../../../libIPLAY/lib//libmpapi.a(mpImageFileApi.o)
ImageFile_GetTargetHeight                         ../../../libIPLAY/lib//libmpapi.a(mpImageFileApi.o)
ImageFile_GetTargetWidth                          ../../../libIPLAY/lib//libmpapi.a(mpImageFileApi.o)
                                                  ../object/imageplayer.o
ImageFile_GetThumbHeight                          ../../../libIPLAY/lib//libmpapi.a(mpImageFileApi.o)
ImageFile_GetThumbWidth                           ../../../libIPLAY/lib//libmpapi.a(mpImageFileApi.o)
ImageFile_Open                                    ../../../libIPLAY/lib//libmpapi.a(mpImageFileApi.o)
ImageGetDC_Controller                             ../../../libIPLAY/lib//libimage.a(jpeg_hal.o)
ImageGetDecodeTargetWin                           ../object/imageplayer.o
ImageGetDecodeWin                                 ../object/imageplayer.o
ImageGetDecodeWinType                             ../object/imageplayer.o
ImageGetSourceBuffer                              ../../../libIPLAY/lib//libmpapi.a(mpImageFileApi.o)
ImageGetSourceSize                                ../../../libIPLAY/lib//libmpapi.a(mpImageFileApi.o)
ImageGetTargetBuffer                              ../../../libIPLAY/lib//libmpapi.a(mpImageFileApi.o)
                                                  ../object/imageplayer.o
ImageGetTargetSize                                ../../../libIPLAY/lib//libmpapi.a(mpImageFileApi.o)
ImagePlayer_CloseFile                             ../object/imageplayer.o
ImagePlayer_DecodeFile                            ../object/imageplayer.o
ImageReleaseAllBuffer                             ../../../libIPLAY/lib//libmpapi.a(mpImageFileApi.o)
                                                  ../object/imageplayer.o
ImageReleaseSourceBuffer                          ../../../libIPLAY/lib//libmpapi.a(mpImageFileApi.o)
                                                  ../../../libIPLAY/lib//libimage.a(IMG_jpeg.o)
                                                  ../../../libIPLAY/lib//libimage.a(jpeg_hal.o)
                                                  ../object/imageplayer.o
ImageReleaseTargetBuffer                          ../../../libIPLAY/lib//libmpapi.a(mpImageFileApi.o)
                                                  ../object/imageplayer.o
ImageResetAllBuffer                               ../../../libIPLAY/lib//libmpapi.a(mpImageFileApi.o)
ImageScaleFromJPEGTarget                          ../object/imageplayer.o
Img2Jpeg                                          ../../../libIPLAY/lib//libimage.a(jpegEncode.o)
Img2Jpeg_WithQTable                               ../../../libIPLAY/lib//libimage.a(jpegEncode.o)
                                                  ../../../libIPLAY/lib//libmpapi.a(mpImageFileApi.o)
ImgBufRotate                                      ../../../libIPLAY/lib//libxpg.a(xpgDraw.o)
ImgDisplayON                                      ../../../libIPLAY/lib//libdisplay.a(idu.o)
ImgPaintArea                                      ../../../libIPLAY/lib//libdisplay.a(imgWin.o)
ImgPutChar                                        ../../../libIPLAY/lib//libdisplay.a(imgString.o)
                                                  ../../../libIPLAY/lib//libdisplay.a(Font.o)
ImgPutChar_GrayFont                               ../../../libIPLAY/lib//libdisplay.a(imgString.o)
ImgSetPoint                                       ../../../libIPLAY/lib//libdisplay.a(imgWin.o)
ImgWinInit                                        ../../../libIPLAY/lib//libdisplay.a(imgWin.o)
                                                  ../../../libIPLAY/lib//libxpg.a(xpgDraw.o)
                                                  ../../../libIPLAY/lib//libimage.a(jpeg_hal.o)
                                                  ../object/xpgDrawSprite.o
                                                  ../object/xpgFunc.o
Img_GetCDU_DecodeWidth                            ../object/imageplayer.o
Img_GetOriginalHeight                             ../object/imageplayer.o
Img_GetOriginalWidth                              ../object/imageplayer.o
Img_Jpeg2ImgBuf                                   ../../../libIPLAY/lib//libimage.a(jpeg_hal.o)
                                                  ../../../libIPLAY/lib//libxpg.a(xpgDraw.o)
                                                  ../../../libIPLAY/lib//libxpg.a(xpgRole.o)
                                                  ../../../libIPLAY/lib//libmpapi.a(mpImageFileApi.o)
Img_Rotate180                                     ../../../libIPLAY/lib//libmpapi.a(mpImageRotateApi.o)
                                                  ../../../libIPLAY/lib//libxpg.a(xpgDraw.o)
Img_Rotate270                                     ../../../libIPLAY/lib//libmpapi.a(mpImageRotateApi.o)
                                                  ../../../libIPLAY/lib//libxpg.a(xpgDraw.o)
Img_Rotate90                                      ../../../libIPLAY/lib//libmpapi.a(mpImageRotateApi.o)
                                                  ../../../libIPLAY/lib//libxpg.a(xpgDraw.o)
InitWins                                          ../../../libIPLAY/lib//libdisplay.a(imgWin.o)
                                                  ../../../libIPLAY/lib//libdisplay.a(idu.o)
Init_Sensor_Record_Win                            ../../../libIPLAY/lib//libsensor.a(sensor_NT99140.o)
InsertDummyByte                                   ../../../libIPLAY/lib//libimage.a(jpeg_hal.o)
IntDisable                                        ../../../libIPLAY/lib//libbios.a(exception.o)
                                                  ../../../libIPLAY/lib//libos.a(semaphore.o)
                                                  ../../../libIPLAY/lib//libbios.a(MP650_uart.o)
                                                  ../../../libIPLAY/lib//libavipacker.a(AVI_Stream.o)
                                                  ../../../libIPLAY/lib//libmpapi.a(mpTrace.o)
                                                  ../../../libIPLAY/lib//libdisplay.a(idu.o)
                                                  ../../../libIPLAY/lib//libsystem.a(ISP_Nand.o)
                                                  ../../../libIPLAY/lib//libsystem.a(global612.o)
                                                  ../../../libIPLAY/lib//libsystem.a(SystemDrive.o)
                                                  ../../../libIPLAY/lib//libsystem.a(SystemMemory.o)
                                                  ../../../libIPLAY/lib//libperipheral.a(hal_rtc.o)
                                                  ../../../libIPLAY/lib//libperipheral.a(hal_mmcp.o)
                                                  ../../../libIPLAY/lib//libperipheral.a(hal_gpio.o)
                                                  ../../../libIPLAY/lib//libfile.a(file.o)
                                                  ../../../libIPLAY/lib//libfile.a(drive.o)
                                                  ../../../libIPLAY/lib//libMcard.a(mcard.o)
                                                  ../../../libIPLAY/lib//libos.a(interrupt.o)
                                                  ../../../libIPLAY/lib//libos.a(systimer.o)
                                                  ../../../libIPLAY/lib//libos.a(memory.o)
                                                  ../../../libIPLAY/lib//libos.a(message.o)
                                                  ../../../libIPLAY/lib//libos.a(mailbox.o)
                                                  ../../../libIPLAY/lib//libos.a(event.o)
                                                  ../../../libIPLAY/lib//libos.a(task.o)
                                                  ../../../libIPLAY/lib//libos.a(cosmos.o)
                                                  ../../../libIPLAY/lib//libbios.a(hal_Ckg.o)
                                                  ../object/ui_timer.o
                                                  ../object/main.o
IntEnable                                         ../../../libIPLAY/lib//libbios.a(exception.o)
                                                  ../../../libIPLAY/lib//libos.a(semaphore.o)
                                                  ../../../libIPLAY/lib//libbios.a(MP650_uart.o)
                                                  ../../../libIPLAY/lib//libtouchctrl.a(touchCtrller.o)
                                                  ../../../libIPLAY/lib//libavipacker.a(AVI_Stream.o)
                                                  ../../../libIPLAY/lib//libmpapi.a(mpTrace.o)
                                                  ../../../libIPLAY/lib//libsensor.a(sensor_NT99140.o)
                                                  ../../../libIPLAY/lib//libdisplay.a(idu.o)
                                                  ../../../libIPLAY/lib//libsystem.a(ISP_Nand.o)
                                                  ../../../libIPLAY/lib//libsystem.a(global612.o)
                                                  ../../../libIPLAY/lib//libsystem.a(SystemDrive.o)
                                                  ../../../libIPLAY/lib//libsystem.a(SystemMemory.o)
                                                  ../../../libIPLAY/lib//libperipheral.a(hal_rtc.o)
                                                  ../../../libIPLAY/lib//libperipheral.a(hal_mmcp.o)
                                                  ../../../libIPLAY/lib//libperipheral.a(hal_gpio.o)
                                                  ../../../libIPLAY/lib//libfile.a(file.o)
                                                  ../../../libIPLAY/lib//libfile.a(drive.o)
                                                  ../../../libIPLAY/lib//libMcard.a(mcard.o)
                                                  ../../../libIPLAY/lib//libos.a(interrupt.o)
                                                  ../../../libIPLAY/lib//libos.a(systimer.o)
                                                  ../../../libIPLAY/lib//libos.a(memory.o)
                                                  ../../../libIPLAY/lib//libos.a(message.o)
                                                  ../../../libIPLAY/lib//libos.a(mailbox.o)
                                                  ../../../libIPLAY/lib//libos.a(event.o)
                                                  ../../../libIPLAY/lib//libos.a(task.o)
                                                  ../../../libIPLAY/lib//libos.a(cosmos.o)
                                                  ../../../libIPLAY/lib//libbios.a(hal_Ckg.o)
                                                  ../object/ui_timer.o
IntHandler                                        ../../../libIPLAY/lib//libbios.a(startup.o)
Ipu_CSC0Set                                       ../../../libIPLAY/lib//libdisplay.a(hal_ipu.o)
                                                  ../../../libIPLAY/lib//libdisplay.a(scaler_650.o)
Ipu_CSC1Set                                       ../../../libIPLAY/lib//libdisplay.a(hal_ipu.o)
                                                  ../../../libIPLAY/lib//libdisplay.a(scaler_650.o)
Ipu_CheckComplete                                 ../../../libIPLAY/lib//libdisplay.a(ipu.o)
                                                  ../../../libIPLAY/lib//libxpg.a(xpgDraw.o)
Ipu_Crayon                                        ../../../libIPLAY/lib//libdisplay.a(hal_ipu.o)
                                                  ../../../libIPLAY/lib//libdisplay.a(scaler_650.o)
Ipu_ImageScaling                                  ../../../libIPLAY/lib//libmpapi.a(mpImageResizeApi.o)
                                                  ../../../libIPLAY/lib//libxpg.a(xpgDraw.o)
                                                  ../../../libIPLAY/lib//libmpapi.a(mpImageApi.o)
                                                  ../../../libIPLAY/lib//libimage.a(jpeg_hal.o)
                                                  ../object/imageplayer.o
Ipu_Overlay                                       ../../../libIPLAY/lib//libmpapi.a(mpImageResizeApi.o)
Ipu_SetAutoEdgeFumc                               ../../../libIPLAY/lib//libdisplay.a(hal_ipu.o)
Ipu_SetBlackWitheEffect                           ../../../libIPLAY/lib//libdisplay.a(hal_ipu.o)
                                                  ../../../libIPLAY/lib//libdisplay.a(scaler_650.o)
Ipu_SetBlur                                       ../../../libIPLAY/lib//libdisplay.a(hal_ipu.o)
                                                  ../../../libIPLAY/lib//libdisplay.a(scaler_650.o)
Ipu_SetBrightness                                 ../../../libIPLAY/lib//libdisplay.a(hal_ipu.o)
                                                  ../../../libIPLAY/lib//libdisplay.a(scaler_650.o)
Ipu_SetCbCrOffset                                 ../../../libIPLAY/lib//libdisplay.a(hal_ipu.o)
                                                  ../../../libIPLAY/lib//libdisplay.a(scaler_650.o)
Ipu_SetColorMixEffect                             ../../../libIPLAY/lib//libdisplay.a(hal_ipu.o)
                                                  ../../../libIPLAY/lib//libdisplay.a(scaler_650.o)
Ipu_SetContrast                                   ../../../libIPLAY/lib//libdisplay.a(hal_ipu.o)
                                                  ../../../libIPLAY/lib//libdisplay.a(scaler_650.o)
Ipu_SetEdgeFumc                                   ../../../libIPLAY/lib//libdisplay.a(hal_ipu.o)
                                                  ../../../libIPLAY/lib//libdisplay.a(scaler_650.o)
Ipu_SetHighGainEffect                             ../../../libIPLAY/lib//libdisplay.a(hal_ipu.o)
                                                  ../../../libIPLAY/lib//libdisplay.a(scaler_650.o)
Ipu_SetHueSaturation                              ../../../libIPLAY/lib//libdisplay.a(hal_ipu.o)
Ipu_SetIpuGlobalEnable                            ../../../libIPLAY/lib//libdisplay.a(hal_ipu.o)
                                                  ../../../libIPLAY/lib//libdisplay.a(scaler_650.o)
Ipu_SetSEBIANEffect                               ../../../libIPLAY/lib//libdisplay.a(hal_ipu.o)
                                                  ../../../libIPLAY/lib//libdisplay.a(scaler_650.o)
Ipu_SetSpecialFumc                                ../../../libIPLAY/lib//libdisplay.a(hal_ipu.o)
Ipu_SetYGammaEnable                               ../../../libIPLAY/lib//libdisplay.a(hal_ipu.o)
                                                  ../../../libIPLAY/lib//libdisplay.a(scaler_650.o)
Ipu_SetYGammaTable                                ../../../libIPLAY/lib//libdisplay.a(hal_ipu.o)
                                                  ../../../libIPLAY/lib//libdisplay.a(scaler_650.o)
Ipu_Sketch                                        ../../../libIPLAY/lib//libdisplay.a(hal_ipu.o)
                                                  ../../../libIPLAY/lib//libdisplay.a(scaler_650.o)
Ipu_Video_Bypass_Scaling                          ../../../libIPLAY/lib//libmpapi.a(mpImageResizeApi.o)
Ipu_Video_Bypass_Show_Main_Win                    ../../../libIPLAY/lib//libmpapi.a(mpImageResizeApi.o)
Ipu_WaitComplete                                  ../../../libIPLAY/lib//libdisplay.a(ipu.o)
Ipu_Zoom                                          ../../../libIPLAY/lib//libmpapi.a(mpImageResizeApi.o)
                                                  ../object/imageplayer.o
IsAlpha08                                         ../../../libIPLAY/lib//libutil.a(util_CharString.o)
IsAlpha16                                         ../../../libIPLAY/lib//libutil.a(util_CharString.o)
IsDigit08                                         ../../../libIPLAY/lib//libutil.a(util_CharString.o)
IsDigit16                                         ../../../libIPLAY/lib//libutil.a(util_CharString.o)
IsGdbConnect                                      ../../../libIPLAY/lib//libbios.a(agent.o)
                                                  ../../../libIPLAY/lib//libbios.a(MP650_uart.o)
                                                  ../../../libIPLAY/lib//libmpapi.a(mpTrace.o)
Is_ChainPoint_EOC_and_At_Boundary                 ../../../libIPLAY/lib//libfile.a(chain.o)
                                                  ../../../libIPLAY/lib//libfile.a(file.o)
IspAreaArray                                      ../../../libIPLAY/lib//libsystem.a(ISP_Nand.o)
IspBlockIsBad                                     ../../../libIPLAY/lib//libMcard.a(mcard.o)
                                                  ../../../libIPLAY/lib//libsystem.a(ISP_Nand.o)
IspEraseBlk                                       ../../../libIPLAY/lib//libMcard.a(mcard.o)
                                                  ../../../libIPLAY/lib//libsystem.a(ISP_Nand.o)
IspFunc_GetMPAPSize                               ../../../libIPLAY/lib//libsystem.a(ISP_Nand.o)
IspFunc_GetRESOURCESize                           ../../../libIPLAY/lib//libsystem.a(ISP_Nand.o)
                                                  ../../../libIPLAY/lib//libxpg.a(xpg.o)
                                                  ../object/isp.o
IspFunc_Read                                      ../../../libIPLAY/lib//libsystem.a(ISP_Nand.o)
IspFunc_ReadAP                                    ../../../libIPLAY/lib//libsystem.a(ISP_Nand.o)
                                                  ../object/isp.o
IspFunc_ReadFST                                   ../../../libIPLAY/lib//libsystem.a(ISP_Nand.o)
IspFunc_ReadMPAP                                  ../../../libIPLAY/lib//libsystem.a(ISP_Nand.o)
IspFunc_ReadRES                                   ../../../libIPLAY/lib//libsystem.a(ISP_Nand.o)
                                                  ../object/isp.o
IspFunc_ReadRESOURCE                              ../../../libIPLAY/lib//libsystem.a(ISP_Nand.o)
                                                  ../../../libIPLAY/lib//libxpg.a(xpg.o)
                                                  ../object/isp.o
IspFunc_ReadUST                                   ../../../libIPLAY/lib//libsystem.a(ISP_Nand.o)
IspFunc_Write                                     ../../../libIPLAY/lib//libsystem.a(ISP_Nand.o)
                                                  ../object/isp.o
IspFunc_WriteFST                                  ../../../libIPLAY/lib//libsystem.a(ISP_Nand.o)
IspFunc_WriteUST                                  ../../../libIPLAY/lib//libsystem.a(ISP_Nand.o)
IspGetInfo                                        ../../../libIPLAY/lib//libMcard.a(mcard.o)
                                                  ../../../libIPLAY/lib//libsystem.a(ISP_Nand.o)
IspRead                                           ../../../libIPLAY/lib//libMcard.a(mcard.o)
                                                  ../../../libIPLAY/lib//libsystem.a(ISP_Nand.o)
IspWrite                                          ../../../libIPLAY/lib//libMcard.a(mcard.o)
                                                  ../../../libIPLAY/lib//libsystem.a(ISP_Nand.o)
JpegDecoder444                                    ../../../libIPLAY/lib//libimage.a(jpeg_hal.o)
JpegDelay                                         ../../../libIPLAY/lib//libimage.a(jpeg_hal.o)
JpegEncQTableInit                                 ../../../libIPLAY/lib//libimage.a(jpegEncode.o)
JpegEncode                                        ../../../libIPLAY/lib//libimage.a(jpegEncode.o)
JpegEncodeCopy                                    ../../../libIPLAY/lib//libimage.a(jpegEncode.o)
JpegEventInit                                     ../../../libIPLAY/lib//libmpapi.a(mpImageFileApi.o)
Jpg_Cdu_Decode_650                                ../../../libIPLAY/lib//libimage.a(jpeg_hal.o)
Jpg_Cdu_Decode_Chase                              ../../../libIPLAY/lib//libimage.a(jpeg_hal.o)
Jpg_Cdu_Decode_DChase                             ../../../libIPLAY/lib//libimage.a(jpeg_hal.o)
Jpg_Cdu_Decode_One                                ../../../libIPLAY/lib//libimage.a(jpeg_hal.o)
Jpg_Cdu_Wait                                      ../../../libIPLAY/lib//libimage.a(jpeg_hal.o)
Jpg_Cdu_Wait_Time                                 ../../../libIPLAY/lib//libimage.a(jpeg_hal.o)
Jpg_CheckComplete                                 ../../../libIPLAY/lib//libimage.a(jpeg_hal.o)
Jpg_CheckImageSize                                ../../../libIPLAY/lib//libimage.a(jpeg_hal.o)
Jpg_CheckQtTable                                  ../../../libIPLAY/lib//libimage.a(jpeg_hal.o)
Jpg_CloseJpegFile                                 ../../../libIPLAY/lib//libimage.a(jpeg_hal.o)
Jpg_DC_Controller_Free                            ../../../libIPLAY/lib//libimage.a(jpeg_hal.o)
                                                  ../../../libIPLAY/lib//libmpapi.a(mpImageFileApi.o)
Jpg_DC_Controller_init                            ../../../libIPLAY/lib//libimage.a(jpeg_hal.o)
                                                  ../../../libIPLAY/lib//libmpapi.a(mpImageFileApi.o)
Jpg_Decoder_CduDecode                             ../../../libIPLAY/lib//libimage.a(jpeg_hal.o)
                                                  ../../../libIPLAY/lib//libimage.a(IMG_jpeg.o)
Jpg_Decoder_DecodeImage                           ../../../libIPLAY/lib//libimage.a(IMG_jpeg.o)
Jpg_Decoder_DecodeThumb                           ../../../libIPLAY/lib//libimage.a(IMG_jpeg.o)
Jpg_Decoder_ImageFile_Init                        ../../../libIPLAY/lib//libimage.a(IMG_jpeg.o)
                                                  ../../../libIPLAY/lib//libmpapi.a(mpImageFileApi.o)
Jpg_Decoder_Init                                  ../../../libIPLAY/lib//libimage.a(IMG_jpeg.o)
                                                  ../../../libIPLAY/lib//libimage.a(jpeg_hal.o)
Jpg_GetImageFrameWidth                            ../../../libIPLAY/lib//libimage.a(jpeg_hal.o)
Jpg_GetImageHeight                                ../../../libIPLAY/lib//libimage.a(jpeg_hal.o)
Jpg_GetImageWidth                                 ../../../libIPLAY/lib//libimage.a(jpeg_hal.o)
Jpg_GetReadTargetHeight                           ../../../libIPLAY/lib//libimage.a(jpeg_hal.o)
Jpg_GetRealTargetWidth                            ../../../libIPLAY/lib//libimage.a(jpeg_hal.o)
Jpg_GetResizeRatio                                ../../../libIPLAY/lib//libimage.a(jpeg_hal.o)
Jpg_GetTargetHeight                               ../../../libIPLAY/lib//libimage.a(jpeg_hal.o)
Jpg_GetTargetWidth                                ../../../libIPLAY/lib//libimage.a(jpeg_hal.o)
                                                  ../../../libIPLAY/lib//libxpg.a(xpgDraw.o)
                                                  ../../../libIPLAY/lib//libxpg.a(xpgRole.o)
Jpg_InitTables                                    ../../../libIPLAY/lib//libimage.a(jpeg_hal.o)
Jpg_Marker_DHT                                    ../../../libIPLAY/lib//libimage.a(jpeg_hal.o)
Jpg_Marker_DQT                                    ../../../libIPLAY/lib//libimage.a(jpeg_hal.o)
Jpg_Marker_SOF0                                   ../../../libIPLAY/lib//libimage.a(jpeg_hal.o)
Jpg_OpenJpegBuffer                                ../../../libIPLAY/lib//libimage.a(jpeg_hal.o)
Jpg_Parse_Marker                                  ../../../libIPLAY/lib//libimage.a(jpeg_hal.o)
                                                  ../../../libIPLAY/lib//libimage.a(IMG_jpeg.o)
Jpg_PollEvent                                     ../../../libIPLAY/lib//libimage.a(jpeg_hal.o)
Jpg_SetDecodedSize                                ../../../libIPLAY/lib//libimage.a(jpeg_hal.o)
Jpg_SetHummanTable                                ../../../libIPLAY/lib//libimage.a(jpeg_hal.o)
Jpg_SetRotateDecodedSize                          ../../../libIPLAY/lib//libimage.a(jpeg_hal.o)
Jpg_Thumb_Parse_Marker                            ../../../libIPLAY/lib//libimage.a(jpeg_hal.o)
                                                  ../../../libIPLAY/lib//libimage.a(IMG_jpeg.o)
LD_bss_end                                        ../../../libIPLAY/lib//libbios.a(startup.o)
LD_stack                                          ../../../libIPLAY/lib//libbios.a(startup.o)
LD_user_block                                     ../../../libIPLAY/lib//libbios.a(startup.o)
LeapYearCheck                                     ../../../libIPLAY/lib//libos.a(systimer.o)
LibjpegCallback_Check                             ../../../libIPLAY/lib//libimage.a(IMG_jpeg.o)
Libjpeg_Abort                                     ../../../libIPLAY/lib//libjpeg.a(jpeg_decoder.o)
Libjpeg_DecodeImage                               ../../../libIPLAY/lib//libjpeg.a(jpeg_decoder.o)
                                                  ../../../libIPLAY/lib//libimage.a(IMG_jpeg.o)
LoadAlien16                                       ../../../libIPLAY/lib//libfile.a(chain.o)
                                                  ../../../libIPLAY/lib//libfile.a(file.o)
                                                  ../../../libIPLAY/lib//libfile.a(drive.o)
                                                  ../../../libIPLAY/lib//libfile.a(dir.o)
LoadAlienArray16                                  ../../../libIPLAY/lib//libfile.a(chain.o)
                                                  ../../../libIPLAY/lib//libfile.a(file.o)
                                                  ../../../libIPLAY/lib//libfile.a(dir.o)
LoadUnalign16                                     ../../../libIPLAY/lib//libfile.a(chain.o)
LoadUnalign32                                     ../../../libIPLAY/lib//libfile.a(chain.o)
Local_Sensor_GPIO_Reset                           ../../../libIPLAY/lib//libsensor.a(sensor_NT99140.o)
                                                  ../../../libIPLAY/lib//libsensor.a(sensor_manager.o)
Locate_DirEntryNode_of_SearchInfo                 ../../../libIPLAY/lib//libfile.a(file.o)
                                                  ../../../libIPLAY/lib//libfile.a(filebrowser.o)
LogBlkStatus                                      ../../../libIPLAY/lib//libMcard.a(NandIdIdentify.o)
                                                  ../../../libIPLAY/lib//libMcard.a(NandPhyAdv_Mp650.o)
                                                  ../../../libIPLAY/lib//libMcard.a(NandFTL.o)
LongNameCopy                                      ../../../libIPLAY/lib//libfile.a(dir.o)
                                                  ../../../libIPLAY/lib//libimage.a(jpegEncode.o)
                                                  ../../../libIPLAY/lib//libfile.a(file.o)
MP650_FPGA_Change_DMA_Priority_IDU                ../../../libIPLAY/lib//libdisplay.a(idu.o)
MP650_FPGA_Change_DMA_Priority_IPU                ../../../libIPLAY/lib//libdisplay.a(scaler_650.o)
MP650_Set_DMA_Request_Limit                       ../../../libIPLAY/lib//libdisplay.a(idu.o)
MagicPixel_AVIEN_INDEX                            ../../../libIPLAY/lib//libavipacker.a(AVI_Packer.o)
                                                  ../../../libIPLAY/lib//libavipacker.a(AVI_packerAPI.o)
MagicPixel_AVIEN_OutSeek_callback                 ../../../libIPLAY/lib//libavipacker.a(AVI_Packer.o)
                                                  ../../../libIPLAY/lib//libavipacker.a(AVI_packerAPI.o)
MagicPixel_AVIEN_fileClose_callback               ../../../libIPLAY/lib//libavipacker.a(AVI_Packer.o)
                                                  ../../../libIPLAY/lib//libavipacker.a(AVI_packerAPI.o)
MagicPixel_AVIEN_fileOpen_callback                ../../../libIPLAY/lib//libavipacker.a(AVI_Packer.o)
MagicPixel_AVIEN_free_callback                    ../../../libIPLAY/lib//libavipacker.a(AVI_Packer.o)
                                                  ../../../libIPLAY/lib//libavipacker.a(AVI_packerAPI.o)
                                                  ../../../libIPLAY/lib//libavipacker.a(AVI_Stream.o)
MagicPixel_AVIEN_malloc_callback                  ../../../libIPLAY/lib//libavipacker.a(AVI_Packer.o)
                                                  ../../../libIPLAY/lib//libavipacker.a(AVI_packerAPI.o)
                                                  ../../../libIPLAY/lib//libavipacker.a(AVI_Stream.o)
MagicPixel_AVIEN_write_callback                   ../../../libIPLAY/lib//libavipacker.a(AVI_Packer.o)
                                                  ../../../libIPLAY/lib//libavipacker.a(AVI_Utility.o)
                                                  ../../../libIPLAY/lib//libavipacker.a(AVI_packerAPI.o)
MagicPixel_audio_channel_process                  ../../../libIPLAY/lib//libmpapi.a(api_main.o)
MailGetBufferSize                                 ../../../libIPLAY/lib//libos.a(mailbox.o)
MailGetBufferStart                                ../../../libIPLAY/lib//libos.a(mailbox.o)
                                                  ../../../libIPLAY/lib//libMcard.a(mcard.o)
MailPolling                                       ../../../libIPLAY/lib//libos.a(mailbox.o)
MailRelease                                       ../../../libIPLAY/lib//libos.a(mailbox.o)
                                                  ../../../libIPLAY/lib//libMcard.a(mcard.o)
MailTrack                                         ../../../libIPLAY/lib//libos.a(mailbox.o)
                                                  ../../../libIPLAY/lib//libMcard.a(mcard.o)
MailboxCreate                                     ../../../libIPLAY/lib//libos.a(mailbox.o)
                                                  ../../../libIPLAY/lib//libMcard.a(mcard.o)
MailboxDestroy                                    ../../../libIPLAY/lib//libos.a(mailbox.o)
MailboxGetPoint                                   ../../../libIPLAY/lib//libos.a(object.o)
                                                  ../../../libIPLAY/lib//libos.a(mailbox.o)
MailboxInit                                       ../../../libIPLAY/lib//libos.a(mailbox.o)
                                                  ../../../libIPLAY/lib//libos.a(cosmos.o)
MailboxPolling                                    ../../../libIPLAY/lib//libos.a(mailbox.o)
MailboxReceive                                    ../../../libIPLAY/lib//libos.a(mailbox.o)
                                                  ../../../libIPLAY/lib//libMcard.a(mcard.o)
MailboxSend                                       ../../../libIPLAY/lib//libos.a(mailbox.o)
                                                  ../../../libIPLAY/lib//libMcard.a(mcard.o)
MakeDir                                           ../../../libIPLAY/lib//libfile.a(dir.o)
                                                  ../../../libIPLAY/lib//libfile.a(file.o)
MakeDir_UTF16                                     ../../../libIPLAY/lib//libfile.a(dir.o)
                                                  ../../../libIPLAY/lib//libfile.a(file.o)
McardBootUpPowerOff                               ../../../libIPLAY/lib//libMcard.a(mcard.o)
McardCardDetectionEnable                          ../../../libIPLAY/lib//libMcard.a(mcard.o)
McardDeselect                                     ../../../libIPLAY/lib//libMcard.a(Uti.o)
                                                  ../../../libIPLAY/lib//libMcard.a(SdPhy_Mp650.o)
                                                  ../../../libIPLAY/lib//libMcard.a(NandPhyAdv_Mp650.o)
McardDevInfoLoad                                  ../../../libIPLAY/lib//libsystem.a(McardDevInfo.o)
                                                  ../object/main.o
McardDevInfoStore                                 ../../../libIPLAY/lib//libsystem.a(McardDevInfo.o)
                                                  ../object/camcorder_func.o
                                                  ../object/main.o
McardHwConfig                                     ../../../libIPLAY/lib//libMcard.a(Uti.o)
                                                  ../../../libIPLAY/lib//libMcard.a(mcard.o)
McardIsr                                          ../../../libIPLAY/lib//libMcard.a(mcard.o)
                                                  ../object/main.o
McardMailBuf                                      ../../../libIPLAY/lib//libMcard.a(mcard.o)
McardNandActive                                   ../../../libIPLAY/lib//libMcard.a(NandPhyAdv_Mp650.o)
                                                  ../../../libIPLAY/lib//libMcard.a(NandFTL.o)
McardNandInactive                                 ../../../libIPLAY/lib//libMcard.a(NandPhyAdv_Mp650.o)
                                                  ../../../libIPLAY/lib//libMcard.a(NandFTL.o)
McardPduDisable                                   ../../../libIPLAY/lib//libMcard.a(Uti.o)
McardPduEnable                                    ../../../libIPLAY/lib//libMcard.a(Uti.o)
McardPowerOff                                     ../../../libIPLAY/lib//libMcard.a(Uti.o)
                                                  ../../../libIPLAY/lib//libMcard.a(SD.o)
McardPowerOn                                      ../../../libIPLAY/lib//libMcard.a(Uti.o)
                                                  ../../../libIPLAY/lib//libMcard.a(SD.o)
McardPowerPinConfig                               ../../../libIPLAY/lib//libMcard.a(Uti.o)
McardSdActive                                     ../../../libIPLAY/lib//libMcard.a(SdPhy_Mp650.o)
                                                  ../../../libIPLAY/lib//libMcard.a(SD.o)
McardSdFreeDataPin                                ../../../libIPLAY/lib//libMcard.a(SdPhy_Mp650.o)
McardSdInactive                                   ../../../libIPLAY/lib//libMcard.a(SdPhy_Mp650.o)
                                                  ../../../libIPLAY/lib//libMcard.a(SD.o)
McardSelect                                       ../../../libIPLAY/lib//libMcard.a(Uti.o)
                                                  ../../../libIPLAY/lib//libMcard.a(SdPhy_Mp650.o)
                                                  ../../../libIPLAY/lib//libMcard.a(NandPhyAdv_Mp650.o)
Mcard_CurCardIDGetLun                             ../../../libIPLAY/lib//libMcard.a(mcard.o)
Mcard_CurLunGetCardID                             ../../../libIPLAY/lib//libMcard.a(mcard.o)
Mcard_DeviceAsyncProgress                         ../../../libIPLAY/lib//libMcard.a(mcard.o)
Mcard_DeviceAsyncRawFormat                        ../../../libIPLAY/lib//libMcard.a(mcard.o)
Mcard_DeviceAsyncRead                             ../../../libIPLAY/lib//libMcard.a(mcard.o)
Mcard_DeviceAsyncWait                             ../../../libIPLAY/lib//libMcard.a(mcard.o)
Mcard_DeviceAsyncWrite                            ../../../libIPLAY/lib//libMcard.a(mcard.o)
Mcard_DeviceClkConfig                             ../../../libIPLAY/lib//libMcard.a(mcard.o)
                                                  ../../../libIPLAY/lib//libfile.a(drive.o)
Mcard_DeviceInit                                  ../../../libIPLAY/lib//libMcard.a(mcard.o)
                                                  ../../../libIPLAY/lib//libsystem.a(SystemDrive.o)
Mcard_DeviceLunSet                                ../../../libIPLAY/lib//libMcard.a(mcard.o)
Mcard_DeviceRawFormat                             ../../../libIPLAY/lib//libMcard.a(mcard.o)
                                                  ../../../libIPLAY/lib//libsystem.a(SystemDrive.o)
Mcard_DeviceRead                                  ../../../libIPLAY/lib//libMcard.a(mcard.o)
                                                  ../../../libIPLAY/lib//libfile.a(Format.o)
                                                  ../../../libIPLAY/lib//libfile.a(drive.o)
Mcard_DeviceRemove                                ../../../libIPLAY/lib//libMcard.a(mcard.o)
                                                  ../../../libIPLAY/lib//libsystem.a(SystemDrive.o)
Mcard_DeviceWrite                                 ../../../libIPLAY/lib//libMcard.a(mcard.o)
                                                  ../../../libIPLAY/lib//libfile.a(Format.o)
                                                  ../../../libIPLAY/lib//libfile.a(drive.o)
Mcard_GetAllFlagPresent                           ../../../libIPLAY/lib//libMcard.a(mcard.o)
                                                  ../../../libIPLAY/lib//libMcard.a(Uti.o)
Mcard_GetCapacity                                 ../../../libIPLAY/lib//libMcard.a(mcard.o)
                                                  ../../../libIPLAY/lib//libfile.a(Format.o)
                                                  ../../../libIPLAY/lib//libfile.a(drive.o)
                                                  ../object/main.o
Mcard_GetCardSubtype                              ../../../libIPLAY/lib//libMcard.a(mcard.o)
                                                  ../../../libIPLAY/lib//libsystem.a(SystemDrive.o)
Mcard_GetDescriptor                               ../../../libIPLAY/lib//libMcard.a(mcard.o)
Mcard_GetDetected                                 ../../../libIPLAY/lib//libMcard.a(mcard.o)
                                                  ../../../libIPLAY/lib//libsystem.a(SystemDrive.o)
Mcard_GetDevice                                   ../../../libIPLAY/lib//libMcard.a(mcard.o)
Mcard_GetDeviceNum                                ../../../libIPLAY/lib//libMcard.a(mcard.o)
Mcard_GetFlagPresent                              ../../../libIPLAY/lib//libMcard.a(mcard.o)
                                                  ../../../libIPLAY/lib//libsystem.a(SystemDrive.o)
Mcard_GetFlagReadOnly                             ../../../libIPLAY/lib//libMcard.a(mcard.o)
                                                  ../../../libIPLAY/lib//libsystem.a(SystemDrive.o)
Mcard_GetRenewCounter                             ../../../libIPLAY/lib//libMcard.a(mcard.o)
Mcard_GetSectorSize                               ../../../libIPLAY/lib//libMcard.a(mcard.o)
                                                  ../../../libIPLAY/lib//libfile.a(Format.o)
                                                  ../../../libIPLAY/lib//libfile.a(drive.o)
Mcard_Init                                        ../../../libIPLAY/lib//libMcard.a(mcard.o)
                                                  ../../../libIPLAY/lib//libfile.a(drive.o)
Mcard_TaskYield                                   ../../../libIPLAY/lib//libMcard.a(Uti.o)
                                                  ../../../libIPLAY/lib//libMcard.a(SD.o)
Mcard_TypeSDCard                                  ../../../libIPLAY/lib//libMcard.a(mcard.o)
MemDump                                           ../../../libIPLAY/lib//libMcard.a(Uti.o)
                                                  ../../../libIPLAY/lib//libMcard.a(NandPhyAdv_Mp650.o)
MemLeakChk                                        ../../../libIPLAY/lib//libos.a(memory.o)
MemLinkChk                                        ../../../libIPLAY/lib//libos.a(memory.o)
MemLinkRelink                                     ../../../libIPLAY/lib//libos.a(memory.o)
MemPoolChk                                        ../../../libIPLAY/lib//libos.a(memory.o)
MemoryAddressToInfo                               ../../../libIPLAY/lib//libos.a(memory.o)
MessageCreate                                     ../../../libIPLAY/lib//libos.a(message.o)
                                                  ../../../libIPLAY/lib//libtouchctrl.a(touchCtrller.o)
                                                  ../../../libIPLAY/lib//libRecord.a(record_task.o)
                                                  ../../lib//libui.a(uiTouchCtrller.o)
                                                  ../../../libIPLAY/lib//libos.a(cosmos.o)
MessageDestroy                                    ../../../libIPLAY/lib//libos.a(message.o)
MessageDrop                                       ../../../libIPLAY/lib//libos.a(message.o)
                                                  ../../../libIPLAY/lib//libtouchctrl.a(tc_gt911.o)
                                                  ../../../libIPLAY/lib//libtouchctrl.a(touchCtrller.o)
                                                  ../../../libIPLAY/lib//libtouchctrl.a(tcapi.o)
                                                  ../../../libIPLAY/lib//libsystem.a(SystemDrive.o)
                                                  ../object/ui_timer.o
MessageGetPoint                                   ../../../libIPLAY/lib//libos.a(object.o)
                                                  ../../../libIPLAY/lib//libos.a(message.o)
MessageGrab                                       ../../../libIPLAY/lib//libos.a(message.o)
MessageReceive                                    ../../../libIPLAY/lib//libos.a(message.o)
                                                  ../../../libIPLAY/lib//libtouchctrl.a(touchCtrller.o)
                                                  ../../../libIPLAY/lib//libRecord.a(record_task.o)
                                                  ../../../libIPLAY/lib//libos.a(cosmos.o)
MessageReceiveWithTO                              ../../../libIPLAY/lib//libos.a(message.o)
                                                  ../../../libIPLAY/lib//libtouchctrl.a(tcapi.o)
                                                  ../../lib//libui.a(uiTouchCtrller.o)
MessageSend                                       ../../../libIPLAY/lib//libos.a(message.o)
                                                  ../../../libIPLAY/lib//libavipacker.a(AVI_Stream.o)
                                                  ../../../libIPLAY/lib//libmpapi.a(api_main.o)
MotoHoldTimeoutSet                                ../object/xpgProcSensorData.o
MotorSetStatus                                    ../object/xpgProcSensorData.o
MoveAFMotor                                       ../object/xpgProcSensorData.o
MoveHMotorToSpecPosition                          ../object/xpgProcSensorData.o
MoveVMotorByPosition                              ../object/xpgProcSensorData.o
MoveVMotorToSpecPosition                          ../object/xpgProcSensorData.o
MpMemCopy                                         ../../../libIPLAY/lib//libmpapi.a(mpUtil.o)
                                                  ../../../libIPLAY/lib//libfile.a(filebrowser.o)
                                                  ../../../libIPLAY/lib//libfile.a(Format.o)
                                                  ../../../libIPLAY/lib//libfile.a(file.o)
                                                  ../../../libIPLAY/lib//libfile.a(drive.o)
                                                  ../../../libIPLAY/lib//libfile.a(chain.o)
                                                  ../../../libIPLAY/lib//libfile.a(dir.o)
MpMemSet                                          ../../../libIPLAY/lib//libmpapi.a(mpUtil.o)
                                                  ../../../libIPLAY/lib//libfile.a(filebrowser.o)
                                                  ../../../libIPLAY/lib//libfile.a(Format.o)
                                                  ../../../libIPLAY/lib//libfile.a(file.o)
                                                  ../../../libIPLAY/lib//libfile.a(drive.o)
                                                  ../../../libIPLAY/lib//libfile.a(chain.o)
                                                  ../../../libIPLAY/lib//libfile.a(dir.o)
                                                  ../object/main.o
MpMemSetDWORD                                     ../../../libIPLAY/lib//libmpapi.a(mpUtil.o)
NandBlockErase                                    ../../../libIPLAY/lib//libMcard.a(NandPhyAdv_Mp650.o)
                                                  ../../../libIPLAY/lib//libMcard.a(NandFTL.o)
NandCodeBackup                                    ../../../libIPLAY/lib//libsystem.a(ISP_Nand.o)
                                                  ../object/main.o
NandCodeCheck                                     ../../../libIPLAY/lib//libsystem.a(ISP_Nand.o)
                                                  ../object/main.o
NandEraseAll                                      ../../../libIPLAY/lib//libsystem.a(ISP_Nand.o)
NandEraseCodeArea                                 ../../../libIPLAY/lib//libsystem.a(ISP_Nand.o)
                                                  ../object/main.o
NandEraseFatArea                                  ../../../libIPLAY/lib//libsystem.a(ISP_Nand.o)
NandFTLEccCheck                                   ../../../libIPLAY/lib//libMcard.a(NandPhyAdv_Mp650.o)
NandFTLInfoInit                                   ../../../libIPLAY/lib//libMcard.a(NandFTL.o)
NandFtlInit                                       ../../../libIPLAY/lib//libMcard.a(NandFTL.o)
NandGetWLInfo                                     ../../../libIPLAY/lib//libMcard.a(NandFTL.o)
                                                  ../../../libIPLAY/lib//libsystem.a(McardDevInfo.o)
NandGetWLInfoSize                                 ../../../libIPLAY/lib//libMcard.a(NandFTL.o)
                                                  ../../../libIPLAY/lib//libsystem.a(McardDevInfo.o)
NandIdPaserFunInit                                ../../../libIPLAY/lib//libMcard.a(NandIdIdentify.o)
                                                  ../../../libIPLAY/lib//libMcard.a(NandPhyAdv_Mp650.o)
NandIdentify                                      ../../../libIPLAY/lib//libMcard.a(NandPhyAdv_Mp650.o)
                                                  ../../../libIPLAY/lib//libMcard.a(NandFTL.o)
NandInfoDump                                      ../../../libIPLAY/lib//libMcard.a(NandPhyAdv_Mp650.o)
                                                  ../../../libIPLAY/lib//libMcard.a(NandFTL.o)
NandInit                                          ../../../libIPLAY/lib//libMcard.a(NandFTL.o)
                                                  ../../../libIPLAY/lib//libMcard.a(mcard.o)
NandIspGetStartAddr                               ../../../libIPLAY/lib//libsystem.a(ISP_Nand.o)
NandIspInit                                       ../../../libIPLAY/lib//libMcard.a(NandFTL.o)
                                                  ../../../libIPLAY/lib//libMcard.a(mcard.o)
NandIspRealRead                                   ../../../libIPLAY/lib//libsystem.a(ISP_Nand.o)
NandPageCopy                                      ../../../libIPLAY/lib//libMcard.a(NandPhyAdv_Mp650.o)
                                                  ../../../libIPLAY/lib//libMcard.a(NandFTL.o)
NandPageRead                                      ../../../libIPLAY/lib//libMcard.a(NandPhyAdv_Mp650.o)
                                                  ../../../libIPLAY/lib//libMcard.a(NandFTL.o)
NandPageWrite                                     ../../../libIPLAY/lib//libMcard.a(NandPhyAdv_Mp650.o)
                                                  ../../../libIPLAY/lib//libMcard.a(NandFTL.o)
NandSetWLInfo                                     ../../../libIPLAY/lib//libMcard.a(NandFTL.o)
                                                  ../../../libIPLAY/lib//libsystem.a(McardDevInfo.o)
NandWLInfoUpdate                                  ../../../libIPLAY/lib//libMcard.a(NandFTL.o)
                                                  ../../../libIPLAY/lib//libsystem.a(McardDevInfo.o)
NextDeletedNode                                   ../../../libIPLAY/lib//libfile.a(dir.o)
NextNode                                          ../../../libIPLAY/lib//libfile.a(dir.o)
                                                  ../../../libIPLAY/lib//libfile.a(file.o)
NonxpgEnterPhotoView                              ../object/xpgPhotoFunc.o
NonxpgPhotoView                                   ../object/xpgPhotoFunc.o
ObjectAllocate                                    ../../../libIPLAY/lib//libos.a(object.o)
                                                  ../../../libIPLAY/lib//libos.a(semaphore.o)
                                                  ../../../libIPLAY/lib//libos.a(message.o)
                                                  ../../../libIPLAY/lib//libos.a(mailbox.o)
                                                  ../../../libIPLAY/lib//libos.a(event.o)
ObjectFree                                        ../../../libIPLAY/lib//libos.a(object.o)
                                                  ../../../libIPLAY/lib//libos.a(semaphore.o)
                                                  ../../../libIPLAY/lib//libos.a(message.o)
                                                  ../../../libIPLAY/lib//libos.a(mailbox.o)
                                                  ../../../libIPLAY/lib//libos.a(event.o)
ObjectInit                                        ../../../libIPLAY/lib//libos.a(object.o)
                                                  ../../../libIPLAY/lib//libos.a(cosmos.o)
OsExchangeContext                                 ../../../libIPLAY/lib//libos.a(task.o)
                                                  ../../../libIPLAY/lib//libbios.a(exception.o)
OsInit                                            ../../../libIPLAY/lib//libos.a(cosmos.o)
                                                  ../object/main.o
OsdFontGetBitPerPixel                             ../../../libIPLAY/lib//libdisplay.a(fontdisp.o)
                                                  ../../../libIPLAY/lib//libdisplay.a(osd.o)
OsdFontGetBlankWidth                              ../../../libIPLAY/lib//libdisplay.a(fontdisp.o)
                                                  ../../../libIPLAY/lib//libdisplay.a(Font.o)
                                                  ../../../libIPLAY/lib//libdisplay.a(osd.o)
OsdFontGetCharBitmapAddr                          ../../../libIPLAY/lib//libdisplay.a(fontdisp.o)
                                                  ../../../libIPLAY/lib//libdisplay.a(osd.o)
OsdFontGetFontAlignment                           ../../../libIPLAY/lib//libdisplay.a(fontdisp.o)
                                                  ../../../libIPLAY/lib//libdisplay.a(osd.o)
OsdFontGetMaxHeight                               ../../../libIPLAY/lib//libdisplay.a(fontdisp.o)
OsdFontIsNewTabFont                               ../../../libIPLAY/lib//libdisplay.a(fontdisp.o)
                                                  ../../../libIPLAY/lib//libdisplay.a(osd.o)
OsdLineInit                                       ../object/xpgFunc.o
                                                  ../object/xpgProcSensorData.o
                                                  ../object/main.o
OsdLineSet                                        ../object/xpgFunc.o
                                                  ../object/xpgProcSensorData.o
PANEL_ID_NAME                                     ../../../libIPLAY/lib//libdisplay.a(IduTable.o)
                                                  ../../../libIPLAY/lib//libdisplay.a(idu.o)
PaintAllColorBar                                  ../../../libIPLAY/lib//libdisplay.a(imgWin.o)
PaintGrayScaleColorBar                            ../../../libIPLAY/lib//libdisplay.a(imgWin.o)
PaintHColorBar                                    ../../../libIPLAY/lib//libdisplay.a(imgWin.o)
PaintMixColorBar                                  ../../../libIPLAY/lib//libdisplay.a(imgWin.o)
PaintVColorBar                                    ../../../libIPLAY/lib//libdisplay.a(imgWin.o)
ParsingSCR                                        ../../../libIPLAY/lib//libMcard.a(SD.o)
PathAPI__Cd_Path                                  ../../../libIPLAY/lib//libfile.a(dir.o)
PathAPI__Cd_Path_UTF16                            ../../../libIPLAY/lib//libfile.a(dir.o)
                                                  ../object/UI_FileSystem.o
PathAPI__CreateFile                               ../../../libIPLAY/lib//libfile.a(file.o)
                                                  ../../../libIPLAY/lib//libavipacker.a(AVI_Packer.o)
PathAPI__CreateFile_UTF16                         ../../../libIPLAY/lib//libfile.a(file.o)
PathAPI__Fopen                                    ../../../libIPLAY/lib//libfile.a(file.o)
                                                  ../../../libIPLAY/lib//libavipacker.a(AVI_packerAPI.o)
PathAPI__Fopen_UTF16                              ../../../libIPLAY/lib//libfile.a(file.o)
PathAPI__GetEntriesCountInDir                     ../../../libIPLAY/lib//libfile.a(dir.o)
PathAPI__GetEntriesCountInDir_UTF16               ../../../libIPLAY/lib//libfile.a(dir.o)
PathAPI__GetFileAttributeAndTimeInfo              ../../../libIPLAY/lib//libfile.a(file.o)
PathAPI__GetFileAttributeAndTimeInfo_UTF16        ../../../libIPLAY/lib//libfile.a(file.o)
PathAPI__Locate_Path                              ../../../libIPLAY/lib//libfile.a(file.o)
                                                  ../../../libIPLAY/lib//libfile.a(dir.o)
PathAPI__Locate_Path_UTF16                        ../../../libIPLAY/lib//libfile.a(file.o)
                                                  ../../../libIPLAY/lib//libfile.a(dir.o)
PathAPI__MakeDir                                  ../../../libIPLAY/lib//libfile.a(dir.o)
PathAPI__MakeDir_UTF16                            ../../../libIPLAY/lib//libfile.a(dir.o)
                                                  ../object/UI_FileSystem.o
PathAPI__RemoveDir                                ../../../libIPLAY/lib//libfile.a(dir.o)
PathAPI__RemoveDir_UTF16                          ../../../libIPLAY/lib//libfile.a(dir.o)
PathAPI__RemoveFile                               ../../../libIPLAY/lib//libfile.a(file.o)
PathAPI__RemoveFile_UTF16                         ../../../libIPLAY/lib//libfile.a(file.o)
PhyDevID2DriveIndex                               ../../../libIPLAY/lib//libsystem.a(SystemConfig.o)
                                                  ../../../libIPLAY/lib//libsystem.a(SystemDrive.o)
                                                  ../../../libIPLAY/lib//libfile.a(Format.o)
                                                  ../../../libIPLAY/lib//libfile.a(drive.o)
PlatformInit                                      ../object/platform.o
                                                  ../object/main.o
PollByte                                          ../../../libIPLAY/lib//libsystem.a(global612.o)
PollDWord                                         ../../../libIPLAY/lib//libsystem.a(global612.o)
PollWord                                          ../../../libIPLAY/lib//libsystem.a(global612.o)
Polling_Event                                     ../../../libIPLAY/lib//libsystem.a(global612.o)
                                                  ../../../libIPLAY/lib//libimage.a(jpeg_hal.o)
PreviousNode                                      ../../../libIPLAY/lib//libfile.a(dir.o)
                                                  ../../../libIPLAY/lib//libfile.a(file.o)
PrintWinData                                      ../object/xpgProcSensorData.o
ProcAFData                                        ../object/xpgProcSensorData.o
ProcAFmotorAction                                 ../object/xpgProcSensorData.o
ProcIpwBit0Event                                  ../object/xpgProcSensorData.o
                                                  ../../../libIPLAY/lib//libRecord.a(record_task.o)
ProcIpwFrameEvent                                 ../object/xpgProcSensorData.o
                                                  ../../../libIPLAY/lib//libRecord.a(record_task.o)
Proc_AutoFocus                                    ../object/xpgProcSensorData.o
Proc_GetFiberLowPoint                             ../object/xpgProcSensorData.o
Proc_SensorData_State                             ../object/xpgProcSensorData.o
                                                  ../object/main.o
Proc_Weld_State                                   ../object/xpgProcSensorData.o
PutDefaultSetupMenuValue                          ../object/Setup.o
PutSetupMenuValue                                 ../object/Setup.o
PutSetupMenuValueWait                             ../object/Setup.o
PutUartChar                                       ../../../libIPLAY/lib//libmpapi.a(mpTrace.o)
                                                  ../../../libIPLAY/lib//libMcard.a(Uti.o)
                                                  ../../../libIPLAY/lib//libMcard.a(NandFTL.o)
                                                  ../../../libIPLAY/lib//libbios.a(agent.o)
                                                  ../object/main.o
PutUartCharDrop                                   ../../../libIPLAY/lib//libmpapi.a(mpTrace.o)
QuickFormat                                       ../../../libIPLAY/lib//libfile.a(drive.o)
QuickGetGPIOValue                                 ../../../libIPLAY/lib//libperipheral.a(hal_gpio.o)
QuickSort                                         ../../../libIPLAY/lib//libfile.a(file.o)
RGB2RGB565                                        ../../../libIPLAY/lib//libdisplay.a(imgWin.o)
RGB2RGB888                                        ../../../libIPLAY/lib//libdisplay.a(imgWin.o)
RGB2YUV                                           ../../../libIPLAY/lib//libdisplay.a(imgWin.o)
                                                  ../../../libIPLAY/lib//libmpapi.a(mpTrace.o)
                                                  ../../../libIPLAY/lib//libdisplay.a(imgString.o)
                                                  ../../../libIPLAY/lib//libdisplay.a(idu.o)
                                                  ../object/xpgDrawSprite.o
                                                  ../object/main.o
RGB2YVU                                           ../../../libIPLAY/lib//libdisplay.a(imgWin.o)
RTC_AlarmEnableSet                                ../../../libIPLAY/lib//libperipheral.a(hal_rtc.o)
RTC_AlarmIeEnableSet                              ../../../libIPLAY/lib//libperipheral.a(hal_rtc.o)
RTC_AlarmOutSet                                   ../../../libIPLAY/lib//libperipheral.a(hal_rtc.o)
RTC_AlarmSet                                      ../../../libIPLAY/lib//libperipheral.a(hal_rtc.o)
                                                  ../../../libIPLAY/lib//libos.a(systimer.o)
RTC_InternalLdoEnable                             ../../../libIPLAY/lib//libperipheral.a(hal_rtc.o)
RTC_LowPowerEnable                                ../../../libIPLAY/lib//libperipheral.a(hal_rtc.o)
RTC_RAlarmModeSet                                 ../../../libIPLAY/lib//libperipheral.a(hal_rtc.o)
RTC_ReadAlarm                                     ../../../libIPLAY/lib//libperipheral.a(hal_rtc.o)
                                                  ../../../libIPLAY/lib//libos.a(systimer.o)
RTC_ReadCount                                     ../../../libIPLAY/lib//libperipheral.a(hal_rtc.o)
                                                  ../../../libIPLAY/lib//libos.a(systimer.o)
                                                  ../object/UI_FileSystem.o
RTC_ReadExt0                                      ../../../libIPLAY/lib//libperipheral.a(hal_rtc.o)
RTC_ReadReservedCount                             ../../../libIPLAY/lib//libperipheral.a(hal_rtc.o)
RTC_RegisterRtcIsrCallback                        ../../../libIPLAY/lib//libperipheral.a(hal_rtc.o)
RTC_SecCountToleranceAdj                          ../../../libIPLAY/lib//libperipheral.a(hal_rtc.o)
RTC_SetCount                                      ../../../libIPLAY/lib//libperipheral.a(hal_rtc.o)
                                                  ../../../libIPLAY/lib//libos.a(systimer.o)
RTC_SetExt0                                       ../../../libIPLAY/lib//libperipheral.a(hal_rtc.o)
RTC_SetExt1                                       ../../../libIPLAY/lib//libperipheral.a(hal_rtc.o)
RTC_SetReservedCount                              ../../../libIPLAY/lib//libperipheral.a(hal_rtc.o)
RamFileAlloc                                      ../../../libIPLAY/lib//libfile.a(file.o)
Read_AllocBitmapEntry                             ../../../libIPLAY/lib//libfile.a(drive.o)
RecordArgument                                    ../../../libIPLAY/lib//libRecord.a(record_task.o)
                                                  ../../../libIPLAY/lib//libmpapi.a(api_main.o)
RecordArgumentGet                                 ../../../libIPLAY/lib//libRecord.a(record_task.o)
                                                  ../../../libIPLAY/lib//libmpapi.a(api_main.o)
RecordTaskStattusGet                              ../../../libIPLAY/lib//libRecord.a(record_task.o)
                                                  ../../../libIPLAY/lib//libxpg.a(xpgDraw.o)
                                                  ../object/xpgFunc.o
RecordTask_State                                  ../../../libIPLAY/lib//libRecord.a(record_task.o)
RecordVideoTask                                   ../../../libIPLAY/lib//libRecord.a(record_task.o)
Recover_g_psSetupMenu                             ../object/Setup.o
RegisterCardDetectCB                              ../../../libIPLAY/lib//libMcard.a(mcard.o)
                                                  ../../../libIPLAY/lib//libfile.a(drive.o)
RegisterCardFatalErrorCB                          ../../../libIPLAY/lib//libMcard.a(mcard.o)
                                                  ../../../libIPLAY/lib//libfile.a(drive.o)
RenewAllDrv                                       ../../../libIPLAY/lib//libfile.a(drive.o)
ReplaceGlyph                                      ../../../libIPLAY/lib//libfile.a(file.o)
                                                  ../../../libIPLAY/lib//libfile.a(dir.o)
ResetMotor                                        ../object/xpgProcSensorData.o
ResetTouchPanel                                   ../../../libIPLAY/lib//libtouchctrl.a(tc_gt911.o)
Reset_CDU_ISR_Count                               ../../../libIPLAY/lib//libimage.a(jpeg_hal.o)
Restart_AP                                        ../../../libIPLAY/lib//libbios.a(agent.o)
RestoreDirNodePosition                            ../../../libIPLAY/lib//libfile.a(dir.o)
                                                  ../../../libIPLAY/lib//libsystem.a(McardDevInfo.o)
                                                  ../../../libIPLAY/lib//libfile.a(file.o)
RingBufferRead                                    ../../../libIPLAY/lib//libos.a(message.o)
RingBufferWrite                                   ../../../libIPLAY/lib//libos.a(message.o)
RingCreate                                        ../../../libIPLAY/lib//libos.a(message.o)
SDPin_Data_Get                                    ../../../libIPLAY/lib//libMcard.a(Uti.o)
SDPin_WP_Get                                      ../../../libIPLAY/lib//libMcard.a(Uti.o)
S_ExceptionCheck_state                            ../../../libIPLAY/lib//libRecord.a(record_task.o)
S_Preview_state                                   ../../../libIPLAY/lib//libRecord.a(record_task.o)
S_Preview_stop_state                              ../../../libIPLAY/lib//libRecord.a(record_task.o)
S_Rec_StandBy_state                               ../../../libIPLAY/lib//libRecord.a(record_task.o)
S_Recording_pause_state                           ../../../libIPLAY/lib//libRecord.a(record_task.o)
S_Recording_state                                 ../../../libIPLAY/lib//libRecord.a(record_task.o)
S_Recording_stop_state                            ../../../libIPLAY/lib//libRecord.a(record_task.o)
S_Unknown_state                                   ../../../libIPLAY/lib//libRecord.a(record_task.o)
S_VIDEO_REC_OP_PREVIEW_START                      ../../../libIPLAY/lib//libRecord.a(record_task.o)
S_VIDEO_REC_OP_PREVIEW_STOP                       ../../../libIPLAY/lib//libRecord.a(record_task.o)
S_VIDEO_REC_OP_RECORDING_EXCEPTION                ../../../libIPLAY/lib//libRecord.a(record_task.o)
S_VIDEO_REC_OP_RECORDING_PAUSE                    ../../../libIPLAY/lib//libRecord.a(record_task.o)
S_VIDEO_REC_OP_RECORDING_RESUME                   ../../../libIPLAY/lib//libRecord.a(record_task.o)
S_VIDEO_REC_OP_RECORDING_START                    ../../../libIPLAY/lib//libRecord.a(record_task.o)
S_VIDEO_REC_OP_RECORDING_STOP                     ../../../libIPLAY/lib//libRecord.a(record_task.o)
S_VIDEO_REC_OP_Unknown                            ../../../libIPLAY/lib//libRecord.a(record_task.o)
SaveAlien16                                       ../../../libIPLAY/lib//libfile.a(chain.o)
                                                  ../../../libIPLAY/lib//libimage.a(jpegEncode.o)
                                                  ../../../libIPLAY/lib//libfile.a(file.o)
                                                  ../../../libIPLAY/lib//libfile.a(drive.o)
                                                  ../../../libIPLAY/lib//libfile.a(dir.o)
SaveAlien32                                       ../../../libIPLAY/lib//libfile.a(chain.o)
                                                  ../../../libIPLAY/lib//libfile.a(file.o)
                                                  ../../../libIPLAY/lib//libfile.a(drive.o)
SaveBuf2File                                      ../../../libIPLAY/lib//libimage.a(jpegEncode.o)
SaveCurrentDirNodePosition                        ../../../libIPLAY/lib//libfile.a(dir.o)
                                                  ../../../libIPLAY/lib//libsystem.a(McardDevInfo.o)
                                                  ../../../libIPLAY/lib//libfile.a(file.o)
ScalerClockReduce                                 ../../../libIPLAY/lib//libsystem.a(global612.o)
ScalerClockReset                                  ../../../libIPLAY/lib//libsystem.a(global612.o)
                                                  ../object/xpgFunc.o
ScalerIsr                                         ../../../libIPLAY/lib//libdisplay.a(scaler_650.o)
                                                  ../object/main.o
ScanFileName                                      ../../../libIPLAY/lib//libfile.a(dir.o)
                                                  ../../../libIPLAY/lib//libfile.a(file.o)
SdHost_DataConfig                                 ../../../libIPLAY/lib//libMcard.a(SdPhy_Mp650.o)
SdHost_DmaReset                                   ../../../libIPLAY/lib//libMcard.a(SdPhy_Mp650.o)
SdHost_GetCardWP                                  ../../../libIPLAY/lib//libMcard.a(Uti.o)
                                                  ../../../libIPLAY/lib//libMcard.a(SD.o)
SdHost_GetResponse                                ../../../libIPLAY/lib//libMcard.a(SdPhy_Mp650.o)
                                                  ../../../libIPLAY/lib//libMcard.a(SD.o)
SdHost_PhyTransfer                                ../../../libIPLAY/lib//libMcard.a(SdPhy_Mp650.o)
                                                  ../../../libIPLAY/lib//libMcard.a(SD.o)
SdHost_SendCmd                                    ../../../libIPLAY/lib//libMcard.a(SdPhy_Mp650.o)
                                                  ../../../libIPLAY/lib//libMcard.a(SD.o)
SdHost_SetHostBlkLen                              ../../../libIPLAY/lib//libMcard.a(SdPhy_Mp650.o)
                                                  ../../../libIPLAY/lib//libMcard.a(SD.o)
SdHost_WaitCardResponse                           ../../../libIPLAY/lib//libMcard.a(SdPhy_Mp650.o)
                                                  ../../../libIPLAY/lib//libMcard.a(SD.o)
SdHost_WaitTransfer                               ../../../libIPLAY/lib//libMcard.a(SdPhy_Mp650.o)
                                                  ../../../libIPLAY/lib//libMcard.a(SD.o)
SdInit                                            ../../../libIPLAY/lib//libMcard.a(SD.o)
                                                  ../../../libIPLAY/lib//libMcard.a(mcard.o)
SdProgChk                                         ../../../libIPLAY/lib//libMcard.a(SD.o)
                                                  ../../../libIPLAY/lib//libMcard.a(NandFTL.o)
SearchFiberLowPoint                               ../object/xpgProcSensorData.o
SearchLeftFiberBottomEdge                         ../object/xpgProcSensorData.o
SearchLeftFiberCenter                             ../object/xpgProcSensorData.o
SearchLeftFiberCore                               ../object/xpgProcSensorData.o
SearchLeftFiberFaceAndTopEdge                     ../object/xpgProcSensorData.o
SearchRightFiberBottomEdge                        ../object/xpgProcSensorData.o
SearchRightFiberCenter                            ../object/xpgProcSensorData.o
SearchRightFiberCore                              ../object/xpgProcSensorData.o
SearchRightFiberFaceAndTopEdge                    ../object/xpgProcSensorData.o
SearchWholeFiber                                  ../object/xpgProcSensorData.o
SectorClear                                       ../../../libIPLAY/lib//libfile.a(chain.o)
                                                  ../../../libIPLAY/lib//libfile.a(drive.o)
                                                  ../../../libIPLAY/lib//libfile.a(dir.o)
Seek                                              ../../../libIPLAY/lib//libfile.a(file.o)
                                                  ../../../libIPLAY/lib//libmpapi.a(mpStreamApi.o)
SeekSet                                           ../../../libIPLAY/lib//libfile.a(file.o)
                                                  ../../../libIPLAY/lib//libmpapi.a(mpStreamApi.o)
                                                  ../object/main.o
Segmentize                                        ../../../libIPLAY/lib//libfile.a(file.o)
SemaphoreCreate                                   ../../../libIPLAY/lib//libos.a(semaphore.o)
                                                  ../../../libIPLAY/lib//libRecord.a(record_task.o)
                                                  ../../../libIPLAY/lib//libmpapi.a(mpImageFileApi.o)
                                                  ../../../libIPLAY/lib//libdisplay.a(idu.o)
                                                  ../../../libIPLAY/lib//libsystem.a(SetTabFunc.o)
                                                  ../../../libIPLAY/lib//libperipheral.a(hal_mmcp.o)
                                                  ../../../libIPLAY/lib//libfile.a(drive.o)
                                                  ../../../libIPLAY/lib//libMcard.a(mcard.o)
SemaphoreDestroy                                  ../../../libIPLAY/lib//libos.a(semaphore.o)
SemaphoreGetPoint                                 ../../../libIPLAY/lib//libos.a(object.o)
                                                  ../../../libIPLAY/lib//libos.a(semaphore.o)
SemaphorePolling                                  ../../../libIPLAY/lib//libos.a(semaphore.o)
SemaphoreRelease                                  ../../../libIPLAY/lib//libos.a(semaphore.o)
                                                  ../../../libIPLAY/lib//libavipacker.a(AVI_packerAPI.o)
                                                  ../../../libIPLAY/lib//libimage.a(IMG_jpeg.o)
                                                  ../../../libIPLAY/lib//libimage.a(jpeg_hal.o)
                                                  ../../../libIPLAY/lib//libdisplay.a(idu.o)
                                                  ../../../libIPLAY/lib//libsystem.a(SetTabFunc.o)
                                                  ../../../libIPLAY/lib//libperipheral.a(hal_mmcp.o)
                                                  ../../../libIPLAY/lib//libfile.a(file.o)
                                                  ../../../libIPLAY/lib//libfile.a(drive.o)
                                                  ../../../libIPLAY/lib//libfile.a(dir.o)
                                                  ../../../libIPLAY/lib//libMcard.a(mcard.o)
SemaphoreSet                                      ../../../libIPLAY/lib//libos.a(semaphore.o)
SemaphoreWait                                     ../../../libIPLAY/lib//libos.a(semaphore.o)
                                                  ../../../libIPLAY/lib//libavipacker.a(AVI_packerAPI.o)
                                                  ../../../libIPLAY/lib//libimage.a(IMG_jpeg.o)
                                                  ../../../libIPLAY/lib//libimage.a(jpeg_hal.o)
                                                  ../../../libIPLAY/lib//libdisplay.a(idu.o)
                                                  ../../../libIPLAY/lib//libsystem.a(SetTabFunc.o)
                                                  ../../../libIPLAY/lib//libperipheral.a(hal_mmcp.o)
                                                  ../../../libIPLAY/lib//libfile.a(file.o)
                                                  ../../../libIPLAY/lib//libfile.a(drive.o)
                                                  ../../../libIPLAY/lib//libfile.a(dir.o)
                                                  ../../../libIPLAY/lib//libMcard.a(mcard.o)
SensorInWin                                       ../../../libIPLAY/lib//libsensor.a(sensor_NT99140.o)
                                                  ../../../libIPLAY/lib//libsensor.a(sensor_manager.o)
                                                  ../object/xpgProcSensorData.o
SensorInputHeight                                 ../../../libIPLAY/lib//libsensor.a(sensor_manager.o)
                                                  ../../../libIPLAY/lib//libsensor.a(sensor_NT99140.o)
SensorInputWidth                                  ../../../libIPLAY/lib//libsensor.a(sensor_manager.o)
                                                  ../../../libIPLAY/lib//libsensor.a(sensor_NT99140.o)
SensorWindow_Height                               ../../../libIPLAY/lib//libsensor.a(sensor_manager.o)
                                                  ../../../libIPLAY/lib//libsensor.a(sensor_NT99140.o)
                                                  ../object/xpgProcSensorData.o
SensorWindow_PosX                                 ../../../libIPLAY/lib//libsensor.a(sensor_manager.o)
                                                  ../../../libIPLAY/lib//libsensor.a(sensor_NT99140.o)
SensorWindow_PosY                                 ../../../libIPLAY/lib//libsensor.a(sensor_manager.o)
                                                  ../../../libIPLAY/lib//libsensor.a(sensor_NT99140.o)
SensorWindow_Width                                ../../../libIPLAY/lib//libsensor.a(sensor_manager.o)
                                                  ../../../libIPLAY/lib//libsensor.a(sensor_NT99140.o)
                                                  ../object/xpgProcSensorData.o
SensorWindow_setFlag                              ../../../libIPLAY/lib//libsensor.a(sensor_manager.o)
                                                  ../../../libIPLAY/lib//libsensor.a(sensor_NT99140.o)
Sensor_CacheWin_Set                               ../../../libIPLAY/lib//libsensor.a(sensor_NT99140.o)
                                                  ../object/xpgProcSensorData.o
Sensor_ChangeIO_Init                              ../../../libIPLAY/lib//libsensor.a(sensor_NT99140.o)
                                                  ../../../libIPLAY/lib//libsensor.a(sensor_manager.o)
Sensor_Channel_Set                                ../../../libIPLAY/lib//libsensor.a(sensor_NT99140.o)
                                                  ../../../libIPLAY/lib//libsensor.a(sensor_manager.o)
                                                  ../object/xpgProcSensorData.o
Sensor_CurChannel_Get                             ../../../libIPLAY/lib//libsensor.a(sensor_NT99140.o)
                                                  ../../../libIPLAY/lib//libsensor.a(sensor_driver_NT99140.o)
                                                  ../object/xpgProcSensorData.o
Sensor_DisplayMode_Set                            ../../../libIPLAY/lib//libsensor.a(sensor_NT99140.o)
                                                  ../object/xpgProcSensorData.o
Sensor_DisplayWindow_Set                          ../../../libIPLAY/lib//libsensor.a(sensor_NT99140.o)
                                                  ../../../libIPLAY/lib//libsensor.a(sensor_manager.o)
Sensor_Input_Enable                               ../../../libIPLAY/lib//libsensor.a(sensor_manager.o)
                                                  ../../../libIPLAY/lib//libsensor.a(sensor_NT99140.o)
Sensor_Setup                                      ../../../libIPLAY/lib//libsensor.a(sensor_NT99140.o)
Sensor_Start                                      ../../../libIPLAY/lib//libsensor.a(sensor_NT99140.o)
SetBWmodeOnOff                                    ../../../libIPLAY/lib//libsensor.a(sensor_driver_NT99140.o)
SetBitByOffset                                    ../../../libIPLAY/lib//libmpapi.a(mpUtil.o)
SetCachWinNum                                     ../object/xpgProcSensorData.o
SetCurFileSortingBasis                            ../../../libIPLAY/lib//libfile.a(file.o)
SetCurrIduFontID                                  ../../../libIPLAY/lib//libdisplay.a(fontdisp.o)
                                                  ../object/xpgDrawSprite.o
SetCurrOsdFontID                                  ../../../libIPLAY/lib//libdisplay.a(fontdisp.o)
SetDataCacheInvalid                               ../../../libIPLAY/lib//libos.a(memory.o)
                                                  ../../../libIPLAY/lib//libbios.a(MP650_uart.o)
                                                  ../../../libIPLAY/lib//libperipheral.a(hal_mmcp.o)
                                                  ../../../libIPLAY/lib//libMcard.a(mcard.o)
SetDrvPresentFlag                                 ../../../libIPLAY/lib//libfile.a(drive.o)
                                                  ../../../libIPLAY/lib//libsystem.a(SystemDrive.o)
SetFillProcWinFlag                                ../object/xpgProcSensorData.o
SetFixedRatio444_422Flag                          ../../../libIPLAY/lib//libimage.a(jpeg_hal.o)
SetGPIOValue                                      ../../../libIPLAY/lib//libperipheral.a(hal_gpio.o)
                                                  ../../../libIPLAY/lib//libtouchctrl.a(tc_gt911.o)
                                                  ../../../libIPLAY/lib//libsensor.a(sensor_NT99140.o)
                                                  ../object/platform.o
SetImageSize                                      ../../../libIPLAY/lib//libsensor.a(sensor_manager.o)
                                                  ../../../libIPLAY/lib//libRecord.a(record_task.o)
SetJpegDecoder422                                 ../../../libIPLAY/lib//libimage.a(jpeg_hal.o)
SetJpegDecoder444                                 ../../../libIPLAY/lib//libimage.a(jpeg_hal.o)
SetMcardClock                                     ../../../libIPLAY/lib//libMcard.a(Uti.o)
                                                  ../../../libIPLAY/lib//libMcard.a(SD.o)
                                                  ../../../libIPLAY/lib//libMcard.a(NandFTL.o)
SetRecordState                                    ../../../libIPLAY/lib//libRecord.a(record_task.o)
SetResolution                                     ../../../libIPLAY/lib//libRecord.a(record_task.o)
SetSD2Clock                                       ../../../libIPLAY/lib//libMcard.a(Uti.o)
SetScaleForZoom                                   ../../../libIPLAY/lib//libdisplay.a(scaler_650.o)
SetSensorInterfaceMode                            ../../../libIPLAY/lib//libsensor.a(sensor_manager.o)
                                                  ../../../libIPLAY/lib//libRecord.a(record_task.o)
SetSensorOverlayEnable                            ../../../libIPLAY/lib//libsensor.a(sensor_manager.o)
Set_AllocBitmapEntry                              ../../../libIPLAY/lib//libfile.a(drive.o)
Set_Bypass_Overlay_Param                          ../../../libIPLAY/lib//libdisplay.a(scaler_650.o)
Set_Display_flag                                  ../../../libIPLAY/lib//libsensor.a(sensor_manager.o)
                                                  ../object/xpgFunc.o
Set_jpegEcodeQualityLevel                         ../../../libIPLAY/lib//libimage.a(jpegEncode.o)
SetupFunctionEffect                               ../object/Setup.o
SetupMenuInit                                     ../object/Setup.o
                                                  ../object/main.o
SetupMenuReset                                    ../object/Setup.o
                                                  ../object/main.o
ShowState                                         ../../../libIPLAY/lib//libRecord.a(record_task.o)
Showinstruction                                   ../../../libIPLAY/lib//libRecord.a(record_task.o)
SingleDriveDelete                                 ../../../libIPLAY/lib//libfile.a(drive.o)
                                                  ../../../libIPLAY/lib//libfile.a(Format.o)
SkipLeadingZero                                   ../../../libIPLAY/lib//libutil.a(util_CharString.o)
SleepingTaskTimeTick                              ../../../libIPLAY/lib//libos.a(task.o)
                                                  ../../../libIPLAY/lib//libos.a(systimer.o)
StandardQt                                        ../../../libIPLAY/lib//libimage.a(jpegEncode.o)
StatusTypeFlag                                    ../../../libIPLAY/lib//libMcard.a(NandIdIdentify.o)
                                                  ../../../libIPLAY/lib//libMcard.a(NandPhyAdv_Mp650.o)
                                                  ../../../libIPLAY/lib//libMcard.a(NandFTL.o)
Str_Length                                        ../../../libIPLAY/lib//libdisplay.a(Font.o)
StreamInit                                        ../../../libIPLAY/lib//libfile.a(file.o)
                                                  ../../../libIPLAY/lib//libfile.a(drive.o)
String08_strstr                                   ../../../libIPLAY/lib//libutil.a(util_CharString.o)
                                                  ../../../libIPLAY/lib//libfile.a(file.o)
String16_strstr                                   ../../../libIPLAY/lib//libutil.a(util_CharString.o)
                                                  ../../../libIPLAY/lib//libfile.a(file.o)
String16rchr                                      ../../../libIPLAY/lib//libutil.a(util_CharString.o)
StringCompare08                                   ../../../libIPLAY/lib//libutil.a(util_CharString.o)
                                                  ../../../libIPLAY/lib//libsystem.a(SystemConfig.o)
StringCompare08_CaseInsensitive                   ../../../libIPLAY/lib//libutil.a(util_CharString.o)
StringCompare16                                   ../../../libIPLAY/lib//libutil.a(util_CharString.o)
                                                  ../../../libIPLAY/lib//libfile.a(file.o)
StringCompare16_CaseInsensitive                   ../../../libIPLAY/lib//libutil.a(util_CharString.o)
StringCopy08                                      ../../../libIPLAY/lib//libutil.a(util_CharString.o)
                                                  ../../../libIPLAY/lib//libfile.a(file.o)
                                                  ../../../libIPLAY/lib//libfile.a(dir.o)
StringCopy0816                                    ../../../libIPLAY/lib//libutil.a(util_CharString.o)
                                                  ../../../libIPLAY/lib//libfile.a(file.o)
                                                  ../../../libIPLAY/lib//libfile.a(dir.o)
StringCopy16                                      ../../../libIPLAY/lib//libutil.a(util_CharString.o)
                                                  ../../../libIPLAY/lib//libfile.a(file.o)
                                                  ../../../libIPLAY/lib//libfile.a(dir.o)
StringCopy1608                                    ../../../libIPLAY/lib//libutil.a(util_CharString.o)
StringLength08                                    ../../../libIPLAY/lib//libutil.a(util_CharString.o)
                                                  ../../../libIPLAY/lib//libfile.a(filebrowser.o)
                                                  ../../../libIPLAY/lib//libfile.a(Format.o)
                                                  ../../../libIPLAY/lib//libfile.a(file.o)
                                                  ../../../libIPLAY/lib//libfile.a(dir.o)
StringLength16                                    ../../../libIPLAY/lib//libutil.a(util_CharString.o)
                                                  ../../../libIPLAY/lib//libfile.a(file.o)
                                                  ../../../libIPLAY/lib//libfile.a(dir.o)
                                                  ../object/UI_FileSystem.o
StringNCompare08                                  ../../../libIPLAY/lib//libutil.a(util_CharString.o)
                                                  ../../../libIPLAY/lib//libfile.a(file.o)
StringNCompare08_CaseInsensitive                  ../../../libIPLAY/lib//libutil.a(util_CharString.o)
StringNCompare16                                  ../../../libIPLAY/lib//libutil.a(util_CharString.o)
StringNCompare16_CaseInsensitive                  ../../../libIPLAY/lib//libutil.a(util_CharString.o)
StringNCopy08                                     ../../../libIPLAY/lib//libutil.a(util_CharString.o)
                                                  ../../../libIPLAY/lib//libfile.a(file.o)
                                                  ../../../libIPLAY/lib//libfile.a(dir.o)
StringNCopy0816                                   ../../../libIPLAY/lib//libutil.a(util_CharString.o)
                                                  ../../../libIPLAY/lib//libfile.a(file.o)
                                                  ../../../libIPLAY/lib//libfile.a(dir.o)
StringNCopy16                                     ../../../libIPLAY/lib//libutil.a(util_CharString.o)
                                                  ../../../libIPLAY/lib//libfile.a(file.o)
                                                  ../../../libIPLAY/lib//libfile.a(dir.o)
StringNCopy1608                                   ../../../libIPLAY/lib//libutil.a(util_CharString.o)
SysCallHandler                                    ../../../libIPLAY/lib//libbios.a(exception.o)
SysTimerProcAdd                                   ../../../libIPLAY/lib//libos.a(systimer.o)
                                                  ../../../libIPLAY/lib//libfile.a(drive.o)
                                                  ../object/ui_timer.o
SysTimerProcArgSet                                ../../../libIPLAY/lib//libos.a(systimer.o)
SysTimerProcArgSetById                            ../../../libIPLAY/lib//libos.a(systimer.o)
SysTimerProcPause                                 ../../../libIPLAY/lib//libos.a(systimer.o)
                                                  ../object/ui_timer.o
SysTimerProcPauseById                             ../../../libIPLAY/lib//libos.a(systimer.o)
SysTimerProcReAdd                                 ../../../libIPLAY/lib//libos.a(systimer.o)
SysTimerProcRemove                                ../../../libIPLAY/lib//libos.a(systimer.o)
                                                  ../object/ui_timer.o
SysTimerProcRemoveById                            ../../../libIPLAY/lib//libos.a(systimer.o)
SysTimerProcResume                                ../../../libIPLAY/lib//libos.a(systimer.o)
                                                  ../object/ui_timer.o
SysTimerProcResumeById                            ../../../libIPLAY/lib//libos.a(systimer.o)
SysTimerStatusGet                                 ../../../libIPLAY/lib//libos.a(systimer.o)
                                                  ../../../libIPLAY/lib//libmpapi.a(mpUtil.o)
Sys_SettingTableClean                             ../../../libIPLAY/lib//libsystem.a(SetTabFunc.o)
Sys_SettingTableClose                             ../../../libIPLAY/lib//libsystem.a(SetTabFunc.o)
                                                  ../object/Setup.o
Sys_SettingTableDump                              ../../../libIPLAY/lib//libsystem.a(SetTabFunc.o)
Sys_SettingTableGet                               ../../../libIPLAY/lib//libsystem.a(SetTabFunc.o)
                                                  ../object/Setup.o
Sys_SettingTableOpen                              ../../../libIPLAY/lib//libsystem.a(SetTabFunc.o)
                                                  ../object/Setup.o
Sys_SettingTablePut                               ../../../libIPLAY/lib//libsystem.a(SetTabFunc.o)
                                                  ../object/Setup.o
SystemCardCtrlModeGet                             ../../../libIPLAY/lib//libsystem.a(SystemDrive.o)
                                                  ../../../libIPLAY/lib//libfile.a(drive.o)
SystemCardDetectCtrlMode                          ../../../libIPLAY/lib//libsystem.a(SystemDrive.o)
                                                  ../../../libIPLAY/lib//libfile.a(drive.o)
SystemCardEvent2DrvIdGet                          ../../../libIPLAY/lib//libsystem.a(SystemDrive.o)
                                                  ../object/main.o
SystemCardEventSet                                ../../../libIPLAY/lib//libsystem.a(SystemDrive.o)
                                                  ../../../libIPLAY/lib//libfile.a(drive.o)
SystemCardExceptionRegister                       ../../../libIPLAY/lib//libsystem.a(SystemDrive.o)
                                                  ../../../libIPLAY/lib//libsystem.a(global612.o)
SystemCardFatalErrorEventSet                      ../../../libIPLAY/lib//libsystem.a(SystemDrive.o)
                                                  ../../../libIPLAY/lib//libfile.a(drive.o)
SystemCardOutCheck                                ../../../libIPLAY/lib//libsystem.a(SystemDrive.o)
SystemCardPlugInCheck                             ../../../libIPLAY/lib//libsystem.a(SystemDrive.o)
                                                  ../object/main.o
SystemCardPresentCheck                            ../../../libIPLAY/lib//libsystem.a(SystemDrive.o)
                                                  ../../../libIPLAY/lib//libimage.a(jpegEncode.o)
                                                  ../../../libIPLAY/lib//libRecord.a(record_task.o)
                                                  ../../../libIPLAY/lib//libfile.a(filebrowser.o)
                                                  ../../../libIPLAY/lib//libfile.a(file.o)
                                                  ../../../libIPLAY/lib//libfile.a(drive.o)
                                                  ../../../libIPLAY/lib//libfile.a(chain.o)
                                                  ../../../libIPLAY/lib//libfile.a(dir.o)
                                                  ../object/xpgPhotoFunc.o
                                                  ../object/xpgDriveFunc.o
                                                  ../object/main.o
SystemCardProtectCtrlMode                         ../../../libIPLAY/lib//libsystem.a(SystemDrive.o)
                                                  ../../../libIPLAY/lib//libfile.a(drive.o)
SystemCardStatusPollingEnable                     ../../../libIPLAY/lib//libsystem.a(SystemDrive.o)
                                                  ../../../libIPLAY/lib//libfile.a(drive.o)
SystemCardSubtypeGet                              ../../../libIPLAY/lib//libsystem.a(SystemDrive.o)
SystemChkChipVer                                  ../../../libIPLAY/lib//libsystem.a(global612.o)
                                                  ../object/main.o
SystemClearErrMsg                                 ../../../libIPLAY/lib//libsystem.a(SystemConfig.o)
SystemClearStatus                                 ../../../libIPLAY/lib//libsystem.a(SystemConfig.o)
                                                  ../../../libIPLAY/lib//libfile.a(filebrowser.o)
                                                  ../object/main.o
SystemConfigInit                                  ../../../libIPLAY/lib//libsystem.a(SystemConfig.o)
                                                  ../object/main.o
SystemDeviceInit                                  ../../../libIPLAY/lib//libsystem.a(SystemDrive.o)
                                                  ../object/main.o
SystemDeviceRawFormat                             ../../../libIPLAY/lib//libsystem.a(SystemDrive.o)
                                                  ../object/main.o
SystemDeviceRemove                                ../../../libIPLAY/lib//libsystem.a(SystemDrive.o)
SystemExceptionInit                               ../../../libIPLAY/lib//libsystem.a(global612.o)
                                                  ../object/main.o
SystemGetElapsedTime                              ../../../libIPLAY/lib//libos.a(systimer.o)
                                                  ../../../libIPLAY/lib//libRecord.a(record_task.o)
                                                  ../../../libIPLAY/lib//libavipacker.a(AVI_packerAPI.o)
                                                  ../../../libIPLAY/lib//libmpapi.a(mpUtil.o)
                                                  ../../../libIPLAY/lib//libimage.a(jpeg_hal.o)
                                                  ../../../libIPLAY/lib//libsensor.a(sensor_manager.o)
                                                  ../../../libIPLAY/lib//libdisplay.a(imgWin.o)
                                                  ../../lib//libui.a(uiTouchCtrller.o)
                                                  ../../../libIPLAY/lib//libsystem.a(global612.o)
                                                  ../../../libIPLAY/lib//libperipheral.a(hal_mmcp.o)
                                                  ../../../libIPLAY/lib//libMcard.a(SdPhy_Mp650.o)
                                                  ../../../libIPLAY/lib//libMcard.a(SD.o)
                                                  ../../../libIPLAY/lib//libMcard.a(NandPhyAdv_Mp650.o)
                                                  ../object/ui_timer.o
SystemGetFlagReadOnly                             ../../../libIPLAY/lib//libsystem.a(SystemDrive.o)
                                                  ../../../libIPLAY/lib//libfile.a(filebrowser.o)
                                                  ../../../libIPLAY/lib//libfile.a(file.o)
                                                  ../../../libIPLAY/lib//libfile.a(drive.o)
                                                  ../../../libIPLAY/lib//libfile.a(dir.o)
                                                  ../object/xpgFunc.o
SystemGetMemAddr                                  ../../../libIPLAY/lib//libsystem.a(SystemMemory.o)
                                                  ../../../libIPLAY/lib//libxpg.a(xpgDraw.o)
                                                  ../../../libIPLAY/lib//libxpg.a(xpgUtil.o)
                                                  ../../../libIPLAY/lib//libdisplay.a(imgWin.o)
                                                  ../../../libIPLAY/lib//libdisplay.a(idu.o)
                                                  ../../../libIPLAY/lib//libos.a(memory.o)
                                                  ../../../libIPLAY/lib//libbios.a(agent.o)
                                                  ../object/main.o
SystemGetMemSize                                  ../../../libIPLAY/lib//libsystem.a(SystemMemory.o)
                                                  ../../../libIPLAY/lib//libxpg.a(xpgUtil.o)
                                                  ../../../libIPLAY/lib//libos.a(memory.o)
                                                  ../object/main.o
SystemGetStatus                                   ../../../libIPLAY/lib//libsystem.a(SystemConfig.o)
SystemGetTimeStamp                                ../../../libIPLAY/lib//libos.a(systimer.o)
                                                  ../../../libIPLAY/lib//libdisplay.a(ipu.o)
                                                  ../../../libIPLAY/lib//libsystem.a(global612.o)
SystemInt                                         ../../../libIPLAY/lib//libos.a(interrupt.o)
                                                  ../../../libIPLAY/lib//libbios.a(exception.o)
SystemIntDis                                      ../../../libIPLAY/lib//libos.a(interrupt.o)
                                                  ../../../libIPLAY/lib//libmpapi.a(mpTrace.o)
                                                  ../../../libIPLAY/lib//libimage.a(jpeg_hal.o)
                                                  ../../../libIPLAY/lib//libdisplay.a(scaler_650.o)
                                                  ../../../libIPLAY/lib//libperipheral.a(hal_rtc.o)
                                                  ../../../libIPLAY/lib//libperipheral.a(hal_gpio.o)
SystemIntEna                                      ../../../libIPLAY/lib//libos.a(interrupt.o)
                                                  ../../../libIPLAY/lib//libimage.a(jpegEncode.o)
                                                  ../../../libIPLAY/lib//libmpapi.a(mpTrace.o)
                                                  ../../../libIPLAY/lib//libimage.a(jpeg_hal.o)
                                                  ../../../libIPLAY/lib//libsensor.a(sensor_NT99140.o)
                                                  ../../../libIPLAY/lib//libdisplay.a(scaler_650.o)
                                                  ../../../libIPLAY/lib//libdisplay.a(idu.o)
                                                  ../../../libIPLAY/lib//libperipheral.a(hal_rtc.o)
                                                  ../../../libIPLAY/lib//libperipheral.a(hal_mmcp.o)
                                                  ../../../libIPLAY/lib//libperipheral.a(hal_gpio.o)
                                                  ../../../libIPLAY/lib//libMcard.a(mcard.o)
SystemIntHandleRegister                           ../../../libIPLAY/lib//libos.a(interrupt.o)
                                                  ../../../libIPLAY/lib//libbios.a(MP650_uart.o)
                                                  ../../../libIPLAY/lib//libperipheral.a(hal_rtc.o)
                                                  ../../../libIPLAY/lib//libperipheral.a(hal_mmcp.o)
                                                  ../../../libIPLAY/lib//libperipheral.a(hal_gpio.o)
                                                  ../../../libIPLAY/lib//libos.a(systimer.o)
                                                  ../object/main.o
SystemIntHandleRelease                            ../../../libIPLAY/lib//libos.a(interrupt.o)
SystemIntInit                                     ../../../libIPLAY/lib//libos.a(interrupt.o)
                                                  ../../../libIPLAY/lib//libos.a(cosmos.o)
SystemMemoryAllocAlignDW                          ../../../libIPLAY/lib//libsystem.a(SystemMemory.o)
SystemMemoryMapInit                               ../../../libIPLAY/lib//libsystem.a(SystemMemory.o)
                                                  ../../../libIPLAY/lib//libsystem.a(SystemConfig.o)
SystemPanelPixelClockGet                          ../../../libIPLAY/lib//libsystem.a(SystemConfig.o)
                                                  ../object/main.o
SystemPanelSizeGet                                ../../../libIPLAY/lib//libsystem.a(SystemConfig.o)
SystemPollingEventHandlerRegister                 ../../../libIPLAY/lib//libsystem.a(global612.o)
SystemPollingEventIdSet                           ../../../libIPLAY/lib//libsystem.a(global612.o)
                                                  ../object/main.o
SystemSetErrEvent                                 ../../../libIPLAY/lib//libsystem.a(SystemConfig.o)
                                                  ../../../libIPLAY/lib//libfile.a(filebrowser.o)
                                                  ../object/xpgBrowser.o
                                                  ../object/main.o
SystemSetErrMsg                                   ../../../libIPLAY/lib//libsystem.a(SystemConfig.o)
                                                  ../../../libIPLAY/lib//libfile.a(filebrowser.o)
SystemSetMemAddr                                  ../../../libIPLAY/lib//libsystem.a(SystemMemory.o)
SystemSetMemSize                                  ../../../libIPLAY/lib//libsystem.a(SystemMemory.o)
SystemSetStatus                                   ../../../libIPLAY/lib//libsystem.a(SystemConfig.o)
                                                  ../../../libIPLAY/lib//libfile.a(filebrowser.o)
                                                  ../object/main.o
SystemTimeAlarmGet                                ../../../libIPLAY/lib//libos.a(systimer.o)
SystemTimeAlarmSet                                ../../../libIPLAY/lib//libos.a(systimer.o)
SystemTimeCheck                                   ../../../libIPLAY/lib//libos.a(systimer.o)
SystemTimeCompensatingVerify                      ../../../libIPLAY/lib//libos.a(systimer.o)
SystemTimeDateToSecConv                           ../../../libIPLAY/lib//libos.a(systimer.o)
SystemTimeGet                                     ../../../libIPLAY/lib//libos.a(systimer.o)
                                                  ../../../libIPLAY/lib//libfile.a(Format.o)
                                                  ../../../libIPLAY/lib//libfile.a(file.o)
                                                  ../../../libIPLAY/lib//libfile.a(dir.o)
SystemTimeSecToDateConv                           ../../../libIPLAY/lib//libos.a(systimer.o)
                                                  ../object/UI_FileSystem.o
SystemTimeSet                                     ../../../libIPLAY/lib//libos.a(systimer.o)
SystemTimerInit                                   ../../../libIPLAY/lib//libos.a(systimer.o)
                                                  ../../../libIPLAY/lib//libos.a(cosmos.o)
SystemTimerPause                                  ../../../libIPLAY/lib//libos.a(systimer.o)
SystemTimerReInit                                 ../../../libIPLAY/lib//libos.a(systimer.o)
SystemTimerResume                                 ../../../libIPLAY/lib//libos.a(systimer.o)
TCON_ID_NAME                                      ../../../libIPLAY/lib//libdisplay.a(IduTable.o)
                                                  ../../../libIPLAY/lib//libdisplay.a(idu.o)
TSPI_DataProc                                     ../object/xpgProcSensorData.o
TSPI_Init                                         ../object/xpgProcSensorData.o
                                                  ../object/main.o
TSPI_PacketSend                                   ../object/xpgProcSensorData.o
TSPI_Receive_Check                                ../object/xpgProcSensorData.o
                                                  ../object/ui_timer.o
TSPI_Receiver                                     ../object/xpgProcSensorData.o
                                                  ../object/main.o
TSPI_Reset                                        ../object/xpgProcSensorData.o
TSPI_Send                                         ../object/xpgProcSensorData.o
TSPI_SendWithCheck                                ../object/xpgProcSensorData.o
TSPI_TimerToResend                                ../object/xpgProcSensorData.o
TSPI_WaitFree                                     ../object/xpgProcSensorData.o
TSPI_Wait_ClkHigh                                 ../object/xpgProcSensorData.o
TSPI_Wait_ClkLow                                  ../object/xpgProcSensorData.o
TSPI_Wait_DinHigh                                 ../object/xpgProcSensorData.o
TSPI_Wait_DinLow                                  ../object/xpgProcSensorData.o
TSPI_Wait_DoutHigh                                ../object/xpgProcSensorData.o
TSPI_Wait_DoutLow                                 ../object/xpgProcSensorData.o
TagDequeue                                        ../../../libIPLAY/lib//libos.a(mailbox.o)
TagInsert                                         ../../../libIPLAY/lib//libos.a(mailbox.o)
Tahoma19_OffsetList                               ../../../libIPLAY/lib//libdisplay.a(fontdisp.o)
Tahoma19_fontdata                                 ../../../libIPLAY/lib//libdisplay.a(fontdisp.o)
TaskAppend                                        ../../../libIPLAY/lib//libos.a(task.o)
                                                  ../../../libIPLAY/lib//libos.a(semaphore.o)
                                                  ../../../libIPLAY/lib//libos.a(message.o)
                                                  ../../../libIPLAY/lib//libos.a(mailbox.o)
                                                  ../../../libIPLAY/lib//libos.a(event.o)
TaskBank                                          ../../../libIPLAY/lib//libos.a(task.o)
                                                  ../../../libIPLAY/lib//libos.a(semaphore.o)
                                                  ../../../libIPLAY/lib//libos.a(message.o)
                                                  ../../../libIPLAY/lib//libos.a(mailbox.o)
                                                  ../../../libIPLAY/lib//libos.a(event.o)
TaskCancelSleeping                                ../../../libIPLAY/lib//libos.a(task.o)
                                                  ../../../libIPLAY/lib//libos.a(message.o)
                                                  ../../../libIPLAY/lib//libos.a(event.o)
TaskChangePriority                                ../../../libIPLAY/lib//libos.a(task.o)
                                                  ../../../libIPLAY/lib//libos.a(cosmos.o)
TaskContextActive                                 ../../../libIPLAY/lib//libos.a(task.o)
                                                  ../../../libIPLAY/lib//libbios.a(agent.o)
TaskContextDeactive                               ../../../libIPLAY/lib//libos.a(task.o)
                                                  ../../../libIPLAY/lib//libbios.a(agent.o)
TaskCreate                                        ../../../libIPLAY/lib//libos.a(task.o)
                                                  ../../../libIPLAY/lib//libtouchctrl.a(touchCtrller.o)
                                                  ../../../libIPLAY/lib//libRecord.a(record_task.o)
                                                  ../../../libIPLAY/lib//libavipacker.a(AVI_Stream.o)
                                                  ../../../libIPLAY/lib//libMcard.a(mcard.o)
                                                  ../../../libIPLAY/lib//libos.a(cosmos.o)
TaskDequeue                                       ../../../libIPLAY/lib//libos.a(task.o)
                                                  ../../../libIPLAY/lib//libos.a(semaphore.o)
                                                  ../../../libIPLAY/lib//libos.a(message.o)
                                                  ../../../libIPLAY/lib//libos.a(mailbox.o)
                                                  ../../../libIPLAY/lib//libos.a(event.o)
TaskDeschedule                                    ../../../libIPLAY/lib//libos.a(task.o)
                                                  ../../../libIPLAY/lib//libos.a(semaphore.o)
                                                  ../../../libIPLAY/lib//libos.a(message.o)
                                                  ../../../libIPLAY/lib//libos.a(mailbox.o)
                                                  ../../../libIPLAY/lib//libos.a(event.o)
TaskGetId                                         ../../../libIPLAY/lib//libos.a(task.o)
                                                  ../../../libIPLAY/lib//libfile.a(filebrowser.o)
                                                  ../../../libIPLAY/lib//libfile.a(file.o)
                                                  ../../../libIPLAY/lib//libfile.a(drive.o)
                                                  ../../../libIPLAY/lib//libfile.a(chain.o)
                                                  ../../../libIPLAY/lib//libfile.a(dir.o)
                                                  ../../../libIPLAY/lib//libMcard.a(NandFTL.o)
                                                  ../../../libIPLAY/lib//libos.a(memory.o)
                                                  ../../../libIPLAY/lib//libos.a(message.o)
                                                  ../../../libIPLAY/lib//libos.a(object.o)
                                                  ../../../libIPLAY/lib//libbios.a(agent.o)
TaskGetMe                                         ../../../libIPLAY/lib//libos.a(task.o)
TaskGetPriority                                   ../../../libIPLAY/lib//libos.a(task.o)
                                                  ../../../libIPLAY/lib//libos.a(mailbox.o)
TaskInit                                          ../../../libIPLAY/lib//libos.a(task.o)
                                                  ../../../libIPLAY/lib//libos.a(cosmos.o)
TaskInsert                                        ../../../libIPLAY/lib//libos.a(task.o)
                                                  ../../../libIPLAY/lib//libos.a(semaphore.o)
                                                  ../../../libIPLAY/lib//libos.a(message.o)
                                                  ../../../libIPLAY/lib//libos.a(mailbox.o)
                                                  ../../../libIPLAY/lib//libos.a(event.o)
TaskPreempt                                       ../../../libIPLAY/lib//libos.a(task.o)
                                                  ../../../libIPLAY/lib//libos.a(message.o)
TaskReset                                         ../../../libIPLAY/lib//libos.a(task.o)
TaskSchedule                                      ../../../libIPLAY/lib//libos.a(task.o)
                                                  ../../../libIPLAY/lib//libos.a(semaphore.o)
                                                  ../../../libIPLAY/lib//libos.a(message.o)
                                                  ../../../libIPLAY/lib//libos.a(mailbox.o)
                                                  ../../../libIPLAY/lib//libos.a(event.o)
TaskSetExitHandle                                 ../../../libIPLAY/lib//libos.a(task.o)
TaskSetSleeping                                   ../../../libIPLAY/lib//libos.a(task.o)
                                                  ../../../libIPLAY/lib//libos.a(message.o)
                                                  ../../../libIPLAY/lib//libos.a(event.o)
TaskSleep                                         ../../../libIPLAY/lib//libos.a(task.o)
                                                  ../../../libIPLAY/lib//libRecord.a(record_task.o)
                                                  ../../../libIPLAY/lib//libavipacker.a(AVI_Stream.o)
                                                  ../../../libIPLAY/lib//libMcard.a(mcard.o)
                                                  ../object/xpgFunc.o
                                                  ../object/main.o
TaskStartup                                       ../../../libIPLAY/lib//libos.a(task.o)
                                                  ../../../libIPLAY/lib//libtouchctrl.a(touchCtrller.o)
                                                  ../../../libIPLAY/lib//libRecord.a(record_task.o)
                                                  ../../../libIPLAY/lib//libavipacker.a(AVI_Stream.o)
                                                  ../../../libIPLAY/lib//libMcard.a(mcard.o)
                                                  ../../../libIPLAY/lib//libos.a(cosmos.o)
TaskStartupParamGet                               ../../../libIPLAY/lib//libos.a(task.o)
TaskTerminate                                     ../../../libIPLAY/lib//libos.a(task.o)
TaskTimeSchedulingInit                            ../../../libIPLAY/lib//libos.a(task.o)
                                                  ../../../libIPLAY/lib//libos.a(cosmos.o)
TaskTimeSchedulingRegister                        ../../../libIPLAY/lib//libos.a(task.o)
TaskTimeSchedulingTimeTick                        ../../../libIPLAY/lib//libos.a(task.o)
                                                  ../../../libIPLAY/lib//libos.a(systimer.o)
TaskWakeup                                        ../../../libIPLAY/lib//libos.a(task.o)
TaskWithdraw                                      ../../../libIPLAY/lib//libos.a(task.o)
                                                  ../../../libIPLAY/lib//libos.a(event.o)
TaskYield                                         ../../../libIPLAY/lib//libos.a(task.o)
                                                  ../../../libIPLAY/lib//libdisplay.a(ipu.o)
                                                  ../../../libIPLAY/lib//libjpeg.a(jpeg_decoder.o)
                                                  ../../../libIPLAY/lib//libmpapi.a(mpStreamApi.o)
                                                  ../../../libIPLAY/lib//libmpapi.a(mpImageFileApi.o)
                                                  ../../../libIPLAY/lib//libmpapi.a(mpUtil.o)
                                                  ../../../libIPLAY/lib//libimage.a(IMG_jpeg.o)
                                                  ../../../libIPLAY/lib//libimage.a(jpeg_hal.o)
                                                  ../../../libIPLAY/lib//libdisplay.a(imgWin.o)
                                                  ../../../libIPLAY/lib//libdisplay.a(osd.o)
                                                  ../../../libIPLAY/lib//libsystem.a(global612.o)
                                                  ../../../libIPLAY/lib//libfile.a(file.o)
                                                  ../../../libIPLAY/lib//libMcard.a(Uti.o)
                                                  ../../../libIPLAY/lib//libMcard.a(SD.o)
                                                  ../../../libIPLAY/lib//libos.a(cosmos.o)
                                                  ../object/xpgProcSensorData.o
                                                  ../object/xpgDriveFunc.o
TaskYieldById                                     ../../../libIPLAY/lib//libos.a(task.o)
TcDriverInit                                      ../../../libIPLAY/lib//libtouchctrl.a(tc_gt911.o)
                                                  ../../../libIPLAY/lib//libtouchctrl.a(touchCtrller.o)
TcFuncConstruct                                   ../../../libIPLAY/lib//libtouchctrl.a(touchCtrller.o)
                                                  ../../../libIPLAY/lib//libtouchctrl.a(tcapi.o)
TcGetMsgId                                        ../../../libIPLAY/lib//libtouchctrl.a(touchCtrller.o)
                                                  ../../../libIPLAY/lib//libtouchctrl.a(tc_gt911.o)
Test_CreateAndWriteFileByName                     ../../../libIPLAY/lib//libfile.a(file.o)
Test_CreateAndWriteFileByName_UTF16               ../../../libIPLAY/lib//libfile.a(file.o)
Test_CreateAndWriteFileByName_UTF16_WriteBufferData ../../../libIPLAY/lib//libfile.a(file.o)
Test_CreateAndWriteFileByName_WriteBufferData     ../../../libIPLAY/lib//libfile.a(file.o)
Test_CreateFolder                                 ../../../libIPLAY/lib//libfile.a(file.o)
Test_CreateFolder_UTF16                           ../../../libIPLAY/lib//libfile.a(file.o)
Test_File_NonAlignedBuffer_DMA_WrongDataIssue     ../../../libIPLAY/lib//libfile.a(file.o)
Test_OpenFileByNameForRead                        ../../../libIPLAY/lib//libfile.a(file.o)
TickCount                                         ../../../libIPLAY/lib//libos.a(systimer.o)
TimeoutToStopHoldMoto1                            ../object/xpgProcSensorData.o
TimeoutToStopHoldMoto2                            ../object/xpgProcSensorData.o
TimeoutToStopHoldMoto3                            ../object/xpgProcSensorData.o
TimeoutToStopHoldMoto4                            ../object/xpgProcSensorData.o
TimerDelay                                        ../../../libIPLAY/lib//libmpapi.a(mpUtil.o)
                                                  ../../../libIPLAY/lib//libtouchctrl.a(tc_gt911.o)
                                                  ../../../libIPLAY/lib//libimage.a(jpeg_hal.o)
                                                  ../object/xpgFunc.o
TimerToGetRecordFPS                               ../../../libIPLAY/lib//libavipacker.a(AVI_packerAPI.o)
TimerToKeyRelease                                 ../../../libIPLAY/lib//libtouchctrl.a(tc_gt911.o)
TimerToNextState                                  ../object/xpgProcSensorData.o
TimerToReleaseAllHold                             ../object/xpgProcSensorData.o
TimerToWriteSetup                                 ../object/Setup.o
Timer_FirstEnterCamPreview                        ../object/xpgFunc.o
                                                  ../object/main.o
TouchCtrllerCalProcess                            ../../lib//libui.a(uiTouchCtrller.o)
TouchCtrllerInit                                  ../../lib//libui.a(uiTouchCtrller.o)
                                                  ../object/main.o
TouchCtrllerTask                                  ../../../libIPLAY/lib//libtouchctrl.a(touchCtrller.o)
TouchIntEnable                                    ../../../libIPLAY/lib//libtouchctrl.a(tc_gt911.o)
TouchPanelInit                                    ../../../libIPLAY/lib//libtouchctrl.a(tc_gt911.o)
TrimOffString08TailSpaces                         ../../../libIPLAY/lib//libutil.a(util_CharString.o)
                                                  ../../../libIPLAY/lib//libfile.a(file.o)
TrimOffString16TailSpaces                         ../../../libIPLAY/lib//libutil.a(util_CharString.o)
                                                  ../../../libIPLAY/lib//libfile.a(file.o)
TurnOffBackLight                                  ../object/platform.o
                                                  ../object/main.o
TurnOffIPUClk                                     ../../../libIPLAY/lib//libdisplay.a(ipu.o)
                                                  ../../../libIPLAY/lib//libimage.a(jpeg_hal.o)
TurnOffIpuScalerClk                               ../../../libIPLAY/lib//libdisplay.a(ipu.o)
TurnOnBackLight                                   ../object/platform.o
                                                  ../object/main.o
TurnOnIPUClk                                      ../../../libIPLAY/lib//libdisplay.a(ipu.o)
U32CharToU8Buff                                   ../../../libIPLAY/lib//libsystem.a(global612.o)
U8BuffToU32Char                                   ../../../libIPLAY/lib//libsystem.a(global612.o)
                                                  ../../../libIPLAY/lib//libdisplay.a(Font.o)
UI_FileSystem_AutoNameFileCreate                  ../object/UI_FileSystem.o
                                                  ../object/camcorder_func.o
UI_FileSystem_EarliestFileRemove                  ../object/UI_FileSystem.o
UTF8ToDCharS1                                     ../../../libIPLAY/lib//libsystem.a(global612.o)
UTF8ToDCharS2                                     ../../../libIPLAY/lib//libsystem.a(global612.o)
UTF8ToDCharS3                                     ../../../libIPLAY/lib//libsystem.a(global612.o)
UTF8ToDCharS4                                     ../../../libIPLAY/lib//libsystem.a(global612.o)
UTF8ToDCharS5                                     ../../../libIPLAY/lib//libsystem.a(global612.o)
UTF8ToDCharS6                                     ../../../libIPLAY/lib//libsystem.a(global612.o)
Uart1Isr                                          ../../../libIPLAY/lib//libbios.a(MP650_uart.o)
                                                  ../../../libIPLAY/lib//libmpapi.a(mpTrace.o)
Uart2Isr                                          ../../../libIPLAY/lib//libbios.a(MP650_uart.o)
UartDMARead                                       ../../../libIPLAY/lib//libmpapi.a(mpTrace.o)
UartDMAWrite                                      ../../../libIPLAY/lib//libmpapi.a(mpTrace.o)
UartIntDisable                                    ../../../libIPLAY/lib//libmpapi.a(mpTrace.o)
UartIntEnable                                     ../../../libIPLAY/lib//libmpapi.a(mpTrace.o)
UartOutText                                       ../../../libIPLAY/lib//libmpapi.a(mpTrace.o)
                                                  ../../../libIPLAY/lib//libtouchctrl.a(tc_gt911.o)
                                                  ../../../libIPLAY/lib//libmpapi.a(mpStreamApi.o)
                                                  ../../../libIPLAY/lib//libsensor.a(sensor_driver_NT99140.o)
                                                  ../../../libIPLAY/lib//libdisplay.a(imgWin.o)
                                                  ../../../libIPLAY/lib//libMcard.a(Uti.o)
                                                  ../../../libIPLAY/lib//libMcard.a(NandPhyAdv_Mp650.o)
                                                  ../object/xpgProcSensorData.o
UartOutValue                                      ../../../libIPLAY/lib//libmpapi.a(mpTrace.o)
                                                  ../../../libIPLAY/lib//libMcard.a(Uti.o)
                                                  ../../../libIPLAY/lib//libMcard.a(NandFTL.o)
UartRead                                          ../../../libIPLAY/lib//libmpapi.a(mpTrace.o)
UartWrite                                         ../../../libIPLAY/lib//libmpapi.a(mpTrace.o)
Uart_Init                                         ../../../libIPLAY/lib//libmpapi.a(mpTrace.o)
                                                  ../object/main.o
Ui_GetKey                                         ../../lib//libui.a(uigpio.o)
                                                  ../object/main.o
Ui_SetKey                                         ../../lib//libui.a(uigpio.o)
Ui_TimerProcAdd                                   ../object/ui_timer.o
                                                  ../../../libIPLAY/lib//libtouchctrl.a(tc_gt911.o)
                                                  ../../../libIPLAY/lib//libavipacker.a(AVI_packerAPI.o)
                                                  ../../../libIPLAY/lib//libsystem.a(McardDevInfo.o)
                                                  ../object/xpgPhotoFunc.o
                                                  ../object/xpgProcSensorData.o
                                                  ../object/Setup.o
                                                  ../object/main.o
Ui_TimerProcInit                                  ../object/ui_timer.o
                                                  ../object/main.o
Ui_TimerProcPause                                 ../object/ui_timer.o
Ui_TimerProcRemove                                ../object/ui_timer.o
                                                  ../../../libIPLAY/lib//libxpg.a(xpgUi.o)
                                                  ../object/xpgProcSensorData.o
                                                  ../object/camcorder_func.o
                                                  ../object/xpgBrowser.o
                                                  ../object/xpgDriveFunc.o
Ui_TimerProcResume                                ../object/ui_timer.o
Ui_TimerProcessCheck                              ../object/ui_timer.o
                                                  ../object/main.o
Ui_TimerProcessHandle                             ../object/ui_timer.o
                                                  ../object/main.o
Ui_UsbdDetectEvent                                ../../lib//libui.a(uigpio.o)
Ui_UsbdSetMode                                    ../../lib//libui.a(uigpio.o)
UnRegisterNandIspBlock                            ../../../libIPLAY/lib//libsystem.a(ISP_Nand.o)
Unlink                                            ../../../libIPLAY/lib//libfile.a(dir.o)
                                                  ../../../libIPLAY/lib//libfile.a(file.o)
UpdateChain                                       ../../../libIPLAY/lib//libfile.a(dir.o)
                                                  ../../../libIPLAY/lib//libfile.a(filebrowser.o)
Update_gSetupMenuValue                            ../object/Setup.o
UpperCase08                                       ../../../libIPLAY/lib//libutil.a(util_CharString.o)
                                                  ../../../libIPLAY/lib//libfile.a(file.o)
                                                  ../../../libIPLAY/lib//libfile.a(dir.o)
UpperCase16                                       ../../../libIPLAY/lib//libutil.a(util_CharString.o)
User_mem_init                                     ../../../libIPLAY/lib//libos.a(memory.o)
                                                  ../../../libIPLAY/lib//libsystem.a(SystemMemory.o)
VIDEO_HEIGHT                                      ../../../libIPLAY/lib//libRecord.a(record_task.o)
                                                  ../../../libIPLAY/lib//libavipacker.a(AVI_Utility.o)
VIDEO_WIDTH                                       ../../../libIPLAY/lib//libRecord.a(record_task.o)
                                                  ../../../libIPLAY/lib//libavipacker.a(AVI_Utility.o)
VerticalOffset                                    ../../../libIPLAY/lib//libmpapi.a(mpImageApi.o)
WaitBuffEmpty                                     ../../../libIPLAY/lib//libimage.a(jpeg_hal.o)
WaitMs                                            ../../../libIPLAY/lib//libmpapi.a(mpUtil.o)
WaitUartStatus                                    ../../../libIPLAY/lib//libmpapi.a(mpTrace.o)
WaitUartTxComplete                                ../../../libIPLAY/lib//libmpapi.a(mpTrace.o)
WeldDataInit                                      ../object/xpgProcSensorData.o
                                                  ../object/xpgFunc.o
WinCopy                                           ../../../libIPLAY/lib//libdisplay.a(imgWin.o)
WinInit4VideoPlay                                 ../../../libIPLAY/lib//libmpapi.a(mpImageApi.o)
WinToWin                                          ../../../libIPLAY/lib//libdisplay.a(imgWin.o)
WriteSetupChg                                     ../object/Setup.o
                                                  ../object/xpgProcSensorData.o
_Balloc                                           /cygdrive/e/mips/bin/../lib/gcc-lib/lexra-mpx-elf/3.2.1/../../../../lexra-mpx-elf/lib/soft-float/libc.a(mprec.o)
                                                  /cygdrive/e/mips/bin/../lib/gcc-lib/lexra-mpx-elf/3.2.1/../../../../lexra-mpx-elf/lib/soft-float/libc.a(dtoa.o)
_Bfree                                            /cygdrive/e/mips/bin/../lib/gcc-lib/lexra-mpx-elf/3.2.1/../../../../lexra-mpx-elf/lib/soft-float/libc.a(mprec.o)
                                                  /cygdrive/e/mips/bin/../lib/gcc-lib/lexra-mpx-elf/3.2.1/../../../../lexra-mpx-elf/lib/soft-float/libc.a(dtoa.o)
_BusyPollRegister32                               ../../../libIPLAY/lib//libsystem.a(global612.o)
_PathLocale                                       /cygdrive/e/mips/bin/../lib/gcc-lib/lexra-mpx-elf/3.2.1/../../../../lexra-mpx-elf/lib/soft-float/libc.a(locale.o)
_PollRegister32                                   ../../../libIPLAY/lib//libsystem.a(global612.o)
__clz_tab                                         /cygdrive/e/mips/bin/../lib/gcc-lib/lexra-mpx-elf/3.2.1/soft-float/libgcc.a(_clz.o)
                                                  /cygdrive/e/mips/bin/../lib/gcc-lib/lexra-mpx-elf/3.2.1/soft-float/libgcc.a(_umoddi3.o)
                                                  /cygdrive/e/mips/bin/../lib/gcc-lib/lexra-mpx-elf/3.2.1/soft-float/libgcc.a(_udivdi3.o)
__ctype_ptr                                       /cygdrive/e/mips/bin/../lib/gcc-lib/lexra-mpx-elf/3.2.1/../../../../lexra-mpx-elf/lib/soft-float/libc.a(ctype_.o)
__fpcmp_parts_d                                   /cygdrive/e/mips/bin/../lib/gcc-lib/lexra-mpx-elf/3.2.1/soft-float/libgcc.a(_fpcmp_parts_df.o)
                                                  /cygdrive/e/mips/bin/../lib/gcc-lib/lexra-mpx-elf/3.2.1/soft-float/libgcc.a(_compare_df.o)
__lc_ctype                                        /cygdrive/e/mips/bin/../lib/gcc-lib/lexra-mpx-elf/3.2.1/../../../../lexra-mpx-elf/lib/soft-float/libc.a(locale.o)
__locale_charset                                  /cygdrive/e/mips/bin/../lib/gcc-lib/lexra-mpx-elf/3.2.1/../../../../lexra-mpx-elf/lib/soft-float/libc.a(locale.o)
__malloc_av_                                      /cygdrive/e/mips/bin/../lib/gcc-lib/lexra-mpx-elf/3.2.1/../../../../lexra-mpx-elf/lib/soft-float/libc.a(mallocr.o)
                                                  /cygdrive/e/mips/bin/../lib/gcc-lib/lexra-mpx-elf/3.2.1/../../../../lexra-mpx-elf/lib/soft-float/libc.a(reallocr.o)
                                                  /cygdrive/e/mips/bin/../lib/gcc-lib/lexra-mpx-elf/3.2.1/../../../../lexra-mpx-elf/lib/soft-float/libc.a(freer.o)
__malloc_current_mallinfo                         /cygdrive/e/mips/bin/../lib/gcc-lib/lexra-mpx-elf/3.2.1/../../../../lexra-mpx-elf/lib/soft-float/libc.a(mallocr.o)
                                                  /cygdrive/e/mips/bin/../lib/gcc-lib/lexra-mpx-elf/3.2.1/../../../../lexra-mpx-elf/lib/soft-float/libc.a(freer.o)
__malloc_lock                                     /cygdrive/e/mips/bin/../lib/gcc-lib/lexra-mpx-elf/3.2.1/../../../../lexra-mpx-elf/lib/soft-float/libc.a(mlock.o)
                                                  /cygdrive/e/mips/bin/../lib/gcc-lib/lexra-mpx-elf/3.2.1/../../../../lexra-mpx-elf/lib/soft-float/libc.a(reallocr.o)
                                                  /cygdrive/e/mips/bin/../lib/gcc-lib/lexra-mpx-elf/3.2.1/../../../../lexra-mpx-elf/lib/soft-float/libc.a(mallocr.o)
                                                  /cygdrive/e/mips/bin/../lib/gcc-lib/lexra-mpx-elf/3.2.1/../../../../lexra-mpx-elf/lib/soft-float/libc.a(freer.o)
__malloc_max_sbrked_mem                           /cygdrive/e/mips/bin/../lib/gcc-lib/lexra-mpx-elf/3.2.1/../../../../lexra-mpx-elf/lib/soft-float/libc.a(mallocr.o)
__malloc_max_total_mem                            /cygdrive/e/mips/bin/../lib/gcc-lib/lexra-mpx-elf/3.2.1/../../../../lexra-mpx-elf/lib/soft-float/libc.a(mallocr.o)
__malloc_sbrk_base                                /cygdrive/e/mips/bin/../lib/gcc-lib/lexra-mpx-elf/3.2.1/../../../../lexra-mpx-elf/lib/soft-float/libc.a(mallocr.o)
                                                  /cygdrive/e/mips/bin/../lib/gcc-lib/lexra-mpx-elf/3.2.1/../../../../lexra-mpx-elf/lib/soft-float/libc.a(freer.o)
__malloc_top_pad                                  /cygdrive/e/mips/bin/../lib/gcc-lib/lexra-mpx-elf/3.2.1/../../../../lexra-mpx-elf/lib/soft-float/libc.a(mallocr.o)
                                                  /cygdrive/e/mips/bin/../lib/gcc-lib/lexra-mpx-elf/3.2.1/../../../../lexra-mpx-elf/lib/soft-float/libc.a(freer.o)
__malloc_trim_threshold                           /cygdrive/e/mips/bin/../lib/gcc-lib/lexra-mpx-elf/3.2.1/../../../../lexra-mpx-elf/lib/soft-float/libc.a(mallocr.o)
                                                  /cygdrive/e/mips/bin/../lib/gcc-lib/lexra-mpx-elf/3.2.1/../../../../lexra-mpx-elf/lib/soft-float/libc.a(freer.o)
__malloc_unlock                                   /cygdrive/e/mips/bin/../lib/gcc-lib/lexra-mpx-elf/3.2.1/../../../../lexra-mpx-elf/lib/soft-float/libc.a(mlock.o)
                                                  /cygdrive/e/mips/bin/../lib/gcc-lib/lexra-mpx-elf/3.2.1/../../../../lexra-mpx-elf/lib/soft-float/libc.a(reallocr.o)
                                                  /cygdrive/e/mips/bin/../lib/gcc-lib/lexra-mpx-elf/3.2.1/../../../../lexra-mpx-elf/lib/soft-float/libc.a(mallocr.o)
                                                  /cygdrive/e/mips/bin/../lib/gcc-lib/lexra-mpx-elf/3.2.1/../../../../lexra-mpx-elf/lib/soft-float/libc.a(freer.o)
__mb_cur_max                                      /cygdrive/e/mips/bin/../lib/gcc-lib/lexra-mpx-elf/3.2.1/../../../../lexra-mpx-elf/lib/soft-float/libc.a(locale.o)
                                                  /cygdrive/e/mips/bin/../lib/gcc-lib/lexra-mpx-elf/3.2.1/../../../../lexra-mpx-elf/lib/soft-float/libc.a(vfprintf.o)
__mcmp                                            /cygdrive/e/mips/bin/../lib/gcc-lib/lexra-mpx-elf/3.2.1/../../../../lexra-mpx-elf/lib/soft-float/libc.a(mprec.o)
                                                  /cygdrive/e/mips/bin/../lib/gcc-lib/lexra-mpx-elf/3.2.1/../../../../lexra-mpx-elf/lib/soft-float/libc.a(dtoa.o)
__mdiff                                           /cygdrive/e/mips/bin/../lib/gcc-lib/lexra-mpx-elf/3.2.1/../../../../lexra-mpx-elf/lib/soft-float/libc.a(mprec.o)
                                                  /cygdrive/e/mips/bin/../lib/gcc-lib/lexra-mpx-elf/3.2.1/../../../../lexra-mpx-elf/lib/soft-float/libc.a(dtoa.o)
__mlocale_changed                                 /cygdrive/e/mips/bin/../lib/gcc-lib/lexra-mpx-elf/3.2.1/../../../../lexra-mpx-elf/lib/soft-float/libc.a(locale.o)
__mprec_bigtens                                   /cygdrive/e/mips/bin/../lib/gcc-lib/lexra-mpx-elf/3.2.1/../../../../lexra-mpx-elf/lib/soft-float/libc.a(mprec.o)
                                                  /cygdrive/e/mips/bin/../lib/gcc-lib/lexra-mpx-elf/3.2.1/../../../../lexra-mpx-elf/lib/soft-float/libc.a(dtoa.o)
__mprec_tens                                      /cygdrive/e/mips/bin/../lib/gcc-lib/lexra-mpx-elf/3.2.1/../../../../lexra-mpx-elf/lib/soft-float/libc.a(mprec.o)
                                                  /cygdrive/e/mips/bin/../lib/gcc-lib/lexra-mpx-elf/3.2.1/../../../../lexra-mpx-elf/lib/soft-float/libc.a(dtoa.o)
__mprec_tinytens                                  /cygdrive/e/mips/bin/../lib/gcc-lib/lexra-mpx-elf/3.2.1/../../../../lexra-mpx-elf/lib/soft-float/libc.a(mprec.o)
__nlocale_changed                                 /cygdrive/e/mips/bin/../lib/gcc-lib/lexra-mpx-elf/3.2.1/../../../../lexra-mpx-elf/lib/soft-float/libc.a(locale.o)
__pack_d                                          /cygdrive/e/mips/bin/../lib/gcc-lib/lexra-mpx-elf/3.2.1/soft-float/libgcc.a(_pack_df.o)
                                                  /cygdrive/e/mips/bin/../lib/gcc-lib/lexra-mpx-elf/3.2.1/soft-float/libgcc.a(_si_to_df.o)
                                                  /cygdrive/e/mips/bin/../lib/gcc-lib/lexra-mpx-elf/3.2.1/soft-float/libgcc.a(_div_df.o)
                                                  /cygdrive/e/mips/bin/../lib/gcc-lib/lexra-mpx-elf/3.2.1/soft-float/libgcc.a(_mul_df.o)
                                                  /cygdrive/e/mips/bin/../lib/gcc-lib/lexra-mpx-elf/3.2.1/soft-float/libgcc.a(_addsub_df.o)
__rgb_ycc422_convert                              ../../../libIPLAY/lib//libjpeg.a(asm_jdcolor.o)
                                                  ../../../libIPLAY/lib//libjpeg.a(jdcolor.o)
__sclose                                          /cygdrive/e/mips/bin/../lib/gcc-lib/lexra-mpx-elf/3.2.1/../../../../lexra-mpx-elf/lib/soft-float/libc.a(stdio.o)
                                                  /cygdrive/e/mips/bin/../lib/gcc-lib/lexra-mpx-elf/3.2.1/../../../../lexra-mpx-elf/lib/soft-float/libc.a(findfp.o)
__sensor_nt99140_i2c_clk_high                     ../../../libIPLAY/lib//libsensor.a(sensor_driver_NT99140.o)
__sensor_nt99140_i2c_clk_input                    ../../../libIPLAY/lib//libsensor.a(sensor_driver_NT99140.o)
__sensor_nt99140_i2c_clk_low                      ../../../libIPLAY/lib//libsensor.a(sensor_driver_NT99140.o)
__sensor_nt99140_i2c_clk_output                   ../../../libIPLAY/lib//libsensor.a(sensor_driver_NT99140.o)
__sensor_nt99140_i2c_data_high                    ../../../libIPLAY/lib//libsensor.a(sensor_driver_NT99140.o)
__sensor_nt99140_i2c_data_input                   ../../../libIPLAY/lib//libsensor.a(sensor_driver_NT99140.o)
__sensor_nt99140_i2c_data_low                     ../../../libIPLAY/lib//libsensor.a(sensor_driver_NT99140.o)
__sensor_nt99140_i2c_data_output                  ../../../libIPLAY/lib//libsensor.a(sensor_driver_NT99140.o)
__sensor_nt99140_i2c_read_data                    ../../../libIPLAY/lib//libsensor.a(sensor_driver_NT99140.o)
__sfmoreglue                                      /cygdrive/e/mips/bin/../lib/gcc-lib/lexra-mpx-elf/3.2.1/../../../../lexra-mpx-elf/lib/soft-float/libc.a(findfp.o)
__sfp                                             /cygdrive/e/mips/bin/../lib/gcc-lib/lexra-mpx-elf/3.2.1/../../../../lexra-mpx-elf/lib/soft-float/libc.a(findfp.o)
__sfvwrite                                        /cygdrive/e/mips/bin/../lib/gcc-lib/lexra-mpx-elf/3.2.1/../../../../lexra-mpx-elf/lib/soft-float/libc.a(fvwrite.o)
                                                  /cygdrive/e/mips/bin/../lib/gcc-lib/lexra-mpx-elf/3.2.1/../../../../lexra-mpx-elf/lib/soft-float/libc.a(vfprintf.o)
__sinit                                           /cygdrive/e/mips/bin/../lib/gcc-lib/lexra-mpx-elf/3.2.1/../../../../lexra-mpx-elf/lib/soft-float/libc.a(findfp.o)
                                                  /cygdrive/e/mips/bin/../lib/gcc-lib/lexra-mpx-elf/3.2.1/../../../../lexra-mpx-elf/lib/soft-float/libc.a(fflush.o)
                                                  /cygdrive/e/mips/bin/../lib/gcc-lib/lexra-mpx-elf/3.2.1/../../../../lexra-mpx-elf/lib/soft-float/libc.a(wsetup.o)
                                                  /cygdrive/e/mips/bin/../lib/gcc-lib/lexra-mpx-elf/3.2.1/../../../../lexra-mpx-elf/lib/soft-float/libc.a(vfprintf.o)
__smakebuf                                        /cygdrive/e/mips/bin/../lib/gcc-lib/lexra-mpx-elf/3.2.1/../../../../lexra-mpx-elf/lib/soft-float/libc.a(makebuf.o)
                                                  /cygdrive/e/mips/bin/../lib/gcc-lib/lexra-mpx-elf/3.2.1/../../../../lexra-mpx-elf/lib/soft-float/libc.a(wsetup.o)
__sread                                           /cygdrive/e/mips/bin/../lib/gcc-lib/lexra-mpx-elf/3.2.1/../../../../lexra-mpx-elf/lib/soft-float/libc.a(stdio.o)
                                                  /cygdrive/e/mips/bin/../lib/gcc-lib/lexra-mpx-elf/3.2.1/../../../../lexra-mpx-elf/lib/soft-float/libc.a(findfp.o)
__sseek                                           /cygdrive/e/mips/bin/../lib/gcc-lib/lexra-mpx-elf/3.2.1/../../../../lexra-mpx-elf/lib/soft-float/libc.a(stdio.o)
                                                  /cygdrive/e/mips/bin/../lib/gcc-lib/lexra-mpx-elf/3.2.1/../../../../lexra-mpx-elf/lib/soft-float/libc.a(makebuf.o)
                                                  /cygdrive/e/mips/bin/../lib/gcc-lib/lexra-mpx-elf/3.2.1/../../../../lexra-mpx-elf/lib/soft-float/libc.a(findfp.o)
__swrite                                          /cygdrive/e/mips/bin/../lib/gcc-lib/lexra-mpx-elf/3.2.1/../../../../lexra-mpx-elf/lib/soft-float/libc.a(stdio.o)
                                                  /cygdrive/e/mips/bin/../lib/gcc-lib/lexra-mpx-elf/3.2.1/../../../../lexra-mpx-elf/lib/soft-float/libc.a(findfp.o)
__swsetup                                         /cygdrive/e/mips/bin/../lib/gcc-lib/lexra-mpx-elf/3.2.1/../../../../lexra-mpx-elf/lib/soft-float/libc.a(wsetup.o)
                                                  /cygdrive/e/mips/bin/../lib/gcc-lib/lexra-mpx-elf/3.2.1/../../../../lexra-mpx-elf/lib/soft-float/libc.a(fvwrite.o)
                                                  /cygdrive/e/mips/bin/../lib/gcc-lib/lexra-mpx-elf/3.2.1/../../../../lexra-mpx-elf/lib/soft-float/libc.a(vfprintf.o)
__thenan_df                                       /cygdrive/e/mips/bin/../lib/gcc-lib/lexra-mpx-elf/3.2.1/soft-float/libgcc.a(_thenan_df.o)
                                                  /cygdrive/e/mips/bin/../lib/gcc-lib/lexra-mpx-elf/3.2.1/soft-float/libgcc.a(_div_df.o)
                                                  /cygdrive/e/mips/bin/../lib/gcc-lib/lexra-mpx-elf/3.2.1/soft-float/libgcc.a(_mul_df.o)
                                                  /cygdrive/e/mips/bin/../lib/gcc-lib/lexra-mpx-elf/3.2.1/soft-float/libgcc.a(_addsub_df.o)
__udivdi3                                         /cygdrive/e/mips/bin/../lib/gcc-lib/lexra-mpx-elf/3.2.1/soft-float/libgcc.a(_udivdi3.o)
                                                  /cygdrive/e/mips/bin/../lib/gcc-lib/lexra-mpx-elf/3.2.1/../../../../lexra-mpx-elf/lib/soft-float/libc.a(vfprintf.o)
__umoddi3                                         /cygdrive/e/mips/bin/../lib/gcc-lib/lexra-mpx-elf/3.2.1/soft-float/libgcc.a(_umoddi3.o)
                                                  /cygdrive/e/mips/bin/../lib/gcc-lib/lexra-mpx-elf/3.2.1/../../../../lexra-mpx-elf/lib/soft-float/libc.a(vfprintf.o)
__unpack_d                                        /cygdrive/e/mips/bin/../lib/gcc-lib/lexra-mpx-elf/3.2.1/soft-float/libgcc.a(_unpack_df.o)
                                                  /cygdrive/e/mips/bin/../lib/gcc-lib/lexra-mpx-elf/3.2.1/soft-float/libgcc.a(_df_to_si.o)
                                                  /cygdrive/e/mips/bin/../lib/gcc-lib/lexra-mpx-elf/3.2.1/soft-float/libgcc.a(_compare_df.o)
                                                  /cygdrive/e/mips/bin/../lib/gcc-lib/lexra-mpx-elf/3.2.1/soft-float/libgcc.a(_div_df.o)
                                                  /cygdrive/e/mips/bin/../lib/gcc-lib/lexra-mpx-elf/3.2.1/soft-float/libgcc.a(_mul_df.o)
                                                  /cygdrive/e/mips/bin/../lib/gcc-lib/lexra-mpx-elf/3.2.1/soft-float/libgcc.a(_addsub_df.o)
_b2d                                              /cygdrive/e/mips/bin/../lib/gcc-lib/lexra-mpx-elf/3.2.1/../../../../lexra-mpx-elf/lib/soft-float/libc.a(mprec.o)
_calloc_r                                         /cygdrive/e/mips/bin/../lib/gcc-lib/lexra-mpx-elf/3.2.1/../../../../lexra-mpx-elf/lib/soft-float/libc.a(callocr.o)
                                                  /cygdrive/e/mips/bin/../lib/gcc-lib/lexra-mpx-elf/3.2.1/../../../../lexra-mpx-elf/lib/soft-float/libc.a(mprec.o)
_cleanup                                          /cygdrive/e/mips/bin/../lib/gcc-lib/lexra-mpx-elf/3.2.1/../../../../lexra-mpx-elf/lib/soft-float/libc.a(findfp.o)
_cleanup_r                                        /cygdrive/e/mips/bin/../lib/gcc-lib/lexra-mpx-elf/3.2.1/../../../../lexra-mpx-elf/lib/soft-float/libc.a(findfp.o)
                                                  /cygdrive/e/mips/bin/../lib/gcc-lib/lexra-mpx-elf/3.2.1/../../../../lexra-mpx-elf/lib/soft-float/libc.a(makebuf.o)
_close_r                                          /cygdrive/e/mips/bin/../lib/gcc-lib/lexra-mpx-elf/3.2.1/../../../../lexra-mpx-elf/lib/soft-float/libc.a(closer.o)
                                                  /cygdrive/e/mips/bin/../lib/gcc-lib/lexra-mpx-elf/3.2.1/../../../../lexra-mpx-elf/lib/soft-float/libc.a(stdio.o)
_ctype_                                           /cygdrive/e/mips/bin/../lib/gcc-lib/lexra-mpx-elf/3.2.1/../../../../lexra-mpx-elf/lib/soft-float/libc.a(ctype_.o)
                                                  /cygdrive/e/mips/bin/../lib/gcc-lib/lexra-mpx-elf/3.2.1/../../../../lexra-mpx-elf/lib/soft-float/libc.a(toupper.o)
_d2b                                              /cygdrive/e/mips/bin/../lib/gcc-lib/lexra-mpx-elf/3.2.1/../../../../lexra-mpx-elf/lib/soft-float/libc.a(mprec.o)
                                                  /cygdrive/e/mips/bin/../lib/gcc-lib/lexra-mpx-elf/3.2.1/../../../../lexra-mpx-elf/lib/soft-float/libc.a(dtoa.o)
_dtoa_r                                           /cygdrive/e/mips/bin/../lib/gcc-lib/lexra-mpx-elf/3.2.1/../../../../lexra-mpx-elf/lib/soft-float/libc.a(dtoa.o)
                                                  /cygdrive/e/mips/bin/../lib/gcc-lib/lexra-mpx-elf/3.2.1/../../../../lexra-mpx-elf/lib/soft-float/libc.a(vfprintf.o)
_free_r                                           /cygdrive/e/mips/bin/../lib/gcc-lib/lexra-mpx-elf/3.2.1/../../../../lexra-mpx-elf/lib/soft-float/libc.a(freer.o)
                                                  /cygdrive/e/mips/bin/../lib/gcc-lib/lexra-mpx-elf/3.2.1/../../../../lexra-mpx-elf/lib/soft-float/libc.a(reent.o)
                                                  /cygdrive/e/mips/bin/../lib/gcc-lib/lexra-mpx-elf/3.2.1/../../../../lexra-mpx-elf/lib/soft-float/libc.a(reallocr.o)
                                                  /cygdrive/e/mips/bin/../lib/gcc-lib/lexra-mpx-elf/3.2.1/../../../../lexra-mpx-elf/lib/soft-float/libc.a(mallocr.o)
                                                  /cygdrive/e/mips/bin/../lib/gcc-lib/lexra-mpx-elf/3.2.1/../../../../lexra-mpx-elf/lib/soft-float/libc.a(wsetup.o)
_fstat_r                                          /cygdrive/e/mips/bin/../lib/gcc-lib/lexra-mpx-elf/3.2.1/../../../../lexra-mpx-elf/lib/soft-float/libc.a(fstatr.o)
                                                  /cygdrive/e/mips/bin/../lib/gcc-lib/lexra-mpx-elf/3.2.1/../../../../lexra-mpx-elf/lib/soft-float/libc.a(makebuf.o)
_fwalk                                            /cygdrive/e/mips/bin/../lib/gcc-lib/lexra-mpx-elf/3.2.1/../../../../lexra-mpx-elf/lib/soft-float/libc.a(fwalk.o)
                                                  /cygdrive/e/mips/bin/../lib/gcc-lib/lexra-mpx-elf/3.2.1/../../../../lexra-mpx-elf/lib/soft-float/libc.a(findfp.o)
                                                  /cygdrive/e/mips/bin/../lib/gcc-lib/lexra-mpx-elf/3.2.1/../../../../lexra-mpx-elf/lib/soft-float/libc.a(fflush.o)
_gp                                               ../../../libIPLAY/lib//libbios.a(startup.o)
_hi0bits                                          /cygdrive/e/mips/bin/../lib/gcc-lib/lexra-mpx-elf/3.2.1/../../../../lexra-mpx-elf/lib/soft-float/libc.a(mprec.o)
                                                  /cygdrive/e/mips/bin/../lib/gcc-lib/lexra-mpx-elf/3.2.1/../../../../lexra-mpx-elf/lib/soft-float/libc.a(dtoa.o)
_i2b                                              /cygdrive/e/mips/bin/../lib/gcc-lib/lexra-mpx-elf/3.2.1/../../../../lexra-mpx-elf/lib/soft-float/libc.a(mprec.o)
                                                  /cygdrive/e/mips/bin/../lib/gcc-lib/lexra-mpx-elf/3.2.1/../../../../lexra-mpx-elf/lib/soft-float/libc.a(dtoa.o)
_impure_ptr                                       /cygdrive/e/mips/bin/../lib/gcc-lib/lexra-mpx-elf/3.2.1/../../../../lexra-mpx-elf/lib/soft-float/libc.a(impure.o)
                                                  /cygdrive/e/mips/bin/../lib/gcc-lib/lexra-mpx-elf/3.2.1/../../../../lexra-mpx-elf/lib/soft-float/libc.a(reent.o)
                                                  /cygdrive/e/mips/bin/../lib/gcc-lib/lexra-mpx-elf/3.2.1/../../../../lexra-mpx-elf/lib/soft-float/libc.a(locale.o)
                                                  /cygdrive/e/mips/bin/../lib/gcc-lib/lexra-mpx-elf/3.2.1/../../../../lexra-mpx-elf/lib/soft-float/libc.a(findfp.o)
                                                  /cygdrive/e/mips/bin/../lib/gcc-lib/lexra-mpx-elf/3.2.1/../../../../lexra-mpx-elf/lib/soft-float/libc.a(fflush.o)
                                                  /cygdrive/e/mips/bin/../lib/gcc-lib/lexra-mpx-elf/3.2.1/../../../../lexra-mpx-elf/lib/soft-float/libc.a(wsetup.o)
                                                  /cygdrive/e/mips/bin/../lib/gcc-lib/lexra-mpx-elf/3.2.1/../../../../lexra-mpx-elf/lib/soft-float/libc.a(vsnprintf.o)
                                                  /cygdrive/e/mips/bin/../lib/gcc-lib/lexra-mpx-elf/3.2.1/../../../../lexra-mpx-elf/lib/soft-float/libc.a(vfprintf.o)
                                                  /cygdrive/e/mips/bin/../lib/gcc-lib/lexra-mpx-elf/3.2.1/../../../../lexra-mpx-elf/lib/soft-float/libc.a(sprintf.o)
_lo0bits                                          /cygdrive/e/mips/bin/../lib/gcc-lib/lexra-mpx-elf/3.2.1/../../../../lexra-mpx-elf/lib/soft-float/libc.a(mprec.o)
_localeconv_r                                     /cygdrive/e/mips/bin/../lib/gcc-lib/lexra-mpx-elf/3.2.1/../../../../lexra-mpx-elf/lib/soft-float/libc.a(locale.o)
_lseek_r                                          /cygdrive/e/mips/bin/../lib/gcc-lib/lexra-mpx-elf/3.2.1/../../../../lexra-mpx-elf/lib/soft-float/libc.a(lseekr.o)
                                                  /cygdrive/e/mips/bin/../lib/gcc-lib/lexra-mpx-elf/3.2.1/../../../../lexra-mpx-elf/lib/soft-float/libc.a(stdio.o)
_lshift                                           /cygdrive/e/mips/bin/../lib/gcc-lib/lexra-mpx-elf/3.2.1/../../../../lexra-mpx-elf/lib/soft-float/libc.a(mprec.o)
                                                  /cygdrive/e/mips/bin/../lib/gcc-lib/lexra-mpx-elf/3.2.1/../../../../lexra-mpx-elf/lib/soft-float/libc.a(dtoa.o)
_malloc_r                                         /cygdrive/e/mips/bin/../lib/gcc-lib/lexra-mpx-elf/3.2.1/../../../../lexra-mpx-elf/lib/soft-float/libc.a(mallocr.o)
                                                  /cygdrive/e/mips/bin/../lib/gcc-lib/lexra-mpx-elf/3.2.1/../../../../lexra-mpx-elf/lib/soft-float/libc.a(callocr.o)
                                                  /cygdrive/e/mips/bin/../lib/gcc-lib/lexra-mpx-elf/3.2.1/../../../../lexra-mpx-elf/lib/soft-float/libc.a(reallocr.o)
                                                  /cygdrive/e/mips/bin/../lib/gcc-lib/lexra-mpx-elf/3.2.1/../../../../lexra-mpx-elf/lib/soft-float/libc.a(makebuf.o)
                                                  /cygdrive/e/mips/bin/../lib/gcc-lib/lexra-mpx-elf/3.2.1/../../../../lexra-mpx-elf/lib/soft-float/libc.a(findfp.o)
_malloc_trim_r                                    /cygdrive/e/mips/bin/../lib/gcc-lib/lexra-mpx-elf/3.2.1/../../../../lexra-mpx-elf/lib/soft-float/libc.a(freer.o)
_mbtowc_r                                         /cygdrive/e/mips/bin/../lib/gcc-lib/lexra-mpx-elf/3.2.1/../../../../lexra-mpx-elf/lib/soft-float/libc.a(mbtowc_r.o)
                                                  /cygdrive/e/mips/bin/../lib/gcc-lib/lexra-mpx-elf/3.2.1/../../../../lexra-mpx-elf/lib/soft-float/libc.a(vfprintf.o)
_mprec_log10                                      /cygdrive/e/mips/bin/../lib/gcc-lib/lexra-mpx-elf/3.2.1/../../../../lexra-mpx-elf/lib/soft-float/libc.a(mprec.o)
_multadd                                          /cygdrive/e/mips/bin/../lib/gcc-lib/lexra-mpx-elf/3.2.1/../../../../lexra-mpx-elf/lib/soft-float/libc.a(mprec.o)
                                                  /cygdrive/e/mips/bin/../lib/gcc-lib/lexra-mpx-elf/3.2.1/../../../../lexra-mpx-elf/lib/soft-float/libc.a(dtoa.o)
_multiply                                         /cygdrive/e/mips/bin/../lib/gcc-lib/lexra-mpx-elf/3.2.1/../../../../lexra-mpx-elf/lib/soft-float/libc.a(mprec.o)
                                                  /cygdrive/e/mips/bin/../lib/gcc-lib/lexra-mpx-elf/3.2.1/../../../../lexra-mpx-elf/lib/soft-float/libc.a(dtoa.o)
_pow5mult                                         /cygdrive/e/mips/bin/../lib/gcc-lib/lexra-mpx-elf/3.2.1/../../../../lexra-mpx-elf/lib/soft-float/libc.a(mprec.o)
                                                  /cygdrive/e/mips/bin/../lib/gcc-lib/lexra-mpx-elf/3.2.1/../../../../lexra-mpx-elf/lib/soft-float/libc.a(dtoa.o)
_ratio                                            /cygdrive/e/mips/bin/../lib/gcc-lib/lexra-mpx-elf/3.2.1/../../../../lexra-mpx-elf/lib/soft-float/libc.a(mprec.o)
_read_r                                           /cygdrive/e/mips/bin/../lib/gcc-lib/lexra-mpx-elf/3.2.1/../../../../lexra-mpx-elf/lib/soft-float/libc.a(readr.o)
                                                  /cygdrive/e/mips/bin/../lib/gcc-lib/lexra-mpx-elf/3.2.1/../../../../lexra-mpx-elf/lib/soft-float/libc.a(stdio.o)
_realloc_r                                        /cygdrive/e/mips/bin/../lib/gcc-lib/lexra-mpx-elf/3.2.1/../../../../lexra-mpx-elf/lib/soft-float/libc.a(reallocr.o)
                                                  /cygdrive/e/mips/bin/../lib/gcc-lib/lexra-mpx-elf/3.2.1/../../../../lexra-mpx-elf/lib/soft-float/libc.a(fvwrite.o)
_reclaim_reent                                    /cygdrive/e/mips/bin/../lib/gcc-lib/lexra-mpx-elf/3.2.1/../../../../lexra-mpx-elf/lib/soft-float/libc.a(reent.o)
_s2b                                              /cygdrive/e/mips/bin/../lib/gcc-lib/lexra-mpx-elf/3.2.1/../../../../lexra-mpx-elf/lib/soft-float/libc.a(mprec.o)
_sbrk_r                                           /cygdrive/e/mips/bin/../lib/gcc-lib/lexra-mpx-elf/3.2.1/../../../../lexra-mpx-elf/lib/soft-float/libc.a(sbrkr.o)
                                                  /cygdrive/e/mips/bin/../lib/gcc-lib/lexra-mpx-elf/3.2.1/../../../../lexra-mpx-elf/lib/soft-float/libc.a(mallocr.o)
                                                  /cygdrive/e/mips/bin/../lib/gcc-lib/lexra-mpx-elf/3.2.1/../../../../lexra-mpx-elf/lib/soft-float/libc.a(freer.o)
_setlocale_r                                      /cygdrive/e/mips/bin/../lib/gcc-lib/lexra-mpx-elf/3.2.1/../../../../lexra-mpx-elf/lib/soft-float/libc.a(locale.o)
_sprintf_r                                        /cygdrive/e/mips/bin/../lib/gcc-lib/lexra-mpx-elf/3.2.1/../../../../lexra-mpx-elf/lib/soft-float/libc.a(sprintf.o)
_ulp                                              /cygdrive/e/mips/bin/../lib/gcc-lib/lexra-mpx-elf/3.2.1/../../../../lexra-mpx-elf/lib/soft-float/libc.a(mprec.o)
_vfprintf_r                                       /cygdrive/e/mips/bin/../lib/gcc-lib/lexra-mpx-elf/3.2.1/../../../../lexra-mpx-elf/lib/soft-float/libc.a(vfprintf.o)
                                                  /cygdrive/e/mips/bin/../lib/gcc-lib/lexra-mpx-elf/3.2.1/../../../../lexra-mpx-elf/lib/soft-float/libc.a(vsnprintf.o)
_vsnprintf_r                                      /cygdrive/e/mips/bin/../lib/gcc-lib/lexra-mpx-elf/3.2.1/../../../../lexra-mpx-elf/lib/soft-float/libc.a(vsnprintf.o)
_wrapup_reent                                     /cygdrive/e/mips/bin/../lib/gcc-lib/lexra-mpx-elf/3.2.1/../../../../lexra-mpx-elf/lib/soft-float/libc.a(reent.o)
_write_r                                          /cygdrive/e/mips/bin/../lib/gcc-lib/lexra-mpx-elf/3.2.1/../../../../lexra-mpx-elf/lib/soft-float/libc.a(writer.o)
                                                  /cygdrive/e/mips/bin/../lib/gcc-lib/lexra-mpx-elf/3.2.1/../../../../lexra-mpx-elf/lib/soft-float/libc.a(stdio.o)
actionFunctions                                   ../object/xpgFunc.o
                                                  ../object/main.o
agentUartIntInfoChange                            ../../../libIPLAY/lib//libbios.a(agent.o)
aviPackerCnt                                      ../../../libIPLAY/lib//libavipacker.a(AVI_packerAPI.o)
aviStart                                          ../../../libIPLAY/lib//libavipacker.a(AVI_packerAPI.o)
aviStreamCache                                    ../../../libIPLAY/lib//libavipacker.a(AVI_Stream.o)
                                                  ../../../libIPLAY/lib//libavipacker.a(AVI_Packer.o)
aviStreamForceFlush                               ../../../libIPLAY/lib//libavipacker.a(AVI_Stream.o)
                                                  ../../../libIPLAY/lib//libavipacker.a(AVI_packerAPI.o)
aviStreamGetNullSpace                             ../../../libIPLAY/lib//libavipacker.a(AVI_Stream.o)
                                                  ../../../libIPLAY/lib//libavipacker.a(AVI_packerAPI.o)
aviStreamInit                                     ../../../libIPLAY/lib//libavipacker.a(AVI_Stream.o)
                                                  ../../../libIPLAY/lib//libavipacker.a(AVI_packerAPI.o)
aviStreamSetPivot                                 ../../../libIPLAY/lib//libavipacker.a(AVI_Stream.o)
aviStreamStartup                                  ../../../libIPLAY/lib//libavipacker.a(AVI_Stream.o)
                                                  ../../../libIPLAY/lib//libRecord.a(record_task.o)
aviStreamTask                                     ../../../libIPLAY/lib//libavipacker.a(AVI_Stream.o)
aviStreamTaskCreate                               ../../../libIPLAY/lib//libavipacker.a(AVI_Stream.o)
                                                  ../object/main.o
aviStreamUninit                                   ../../../libIPLAY/lib//libavipacker.a(AVI_Stream.o)
                                                  ../../../libIPLAY/lib//libavipacker.a(AVI_packerAPI.o)
aviStreamindex                                    ../../../libIPLAY/lib//libavipacker.a(AVI_Stream.o)
                                                  ../../../libIPLAY/lib//libavipacker.a(AVI_Packer.o)
aviend                                            ../../../libIPLAY/lib//libavipacker.a(AVI_packerAPI.o)
avifile                                           ../../../libIPLAY/lib//libavipacker.a(AVI_Packer.o)
                                                  ../../../libIPLAY/lib//libavipacker.a(AVI_packerAPI.o)
                                                  ../../../libIPLAY/lib//libavipacker.a(AVI_Stream.o)
bDataBuf                                          ../../../libIPLAY/lib//libxpg.a(xpgReader.o)
bGetMaxDay                                        ../../../libIPLAY/lib//libos.a(systimer.o)
bIduInit                                          ../../../libIPLAY/lib//libdisplay.a(idu.o)
bJpegHeader                                       ../../../libIPLAY/lib//libimage.a(jpegEncode.o)
bRecordMode                                       ../../../libIPLAY/lib//libRecord.a(record_task.o)
bSetUpChg                                         ../object/Setup.o
bSystemFontColorB                                 ../../../libIPLAY/lib//libdisplay.a(imgString.o)
bSystemFontColorG                                 ../../../libIPLAY/lib//libdisplay.a(imgString.o)
bSystemFontColorR                                 ../../../libIPLAY/lib//libdisplay.a(imgString.o)
bSystemFontColorRGB                               ../../../libIPLAY/lib//libdisplay.a(imgString.o)
baMinPatchTable                                   ../../../libIPLAY/lib//libimage.a(jpeg_hal.o)
baMinTable                                        ../../../libIPLAY/lib//libimage.a(jpeg_hal.o)
baSymbolPatchTable                                ../../../libIPLAY/lib//libimage.a(jpeg_hal.o)
baSymbolTable                                     ../../../libIPLAY/lib//libimage.a(jpeg_hal.o)
badBlockMark                                      ../../../libIPLAY/lib//libMcard.a(NandPhyAdv_Mp650.o)
                                                  ../../../libIPLAY/lib//libMcard.a(NandFTL.o)
badBlockMarkFirst                                 ../../../libIPLAY/lib//libMcard.a(NandPhyAdv_Mp650.o)
badBlockMarkLast                                  ../../../libIPLAY/lib//libMcard.a(NandPhyAdv_Mp650.o)
boIsNightMode                                     ../../../libIPLAY/lib//libsensor.a(sensor_driver_NT99140.o)
boVideoPreview                                    ../../../libIPLAY/lib//libmpapi.a(api_main.o)
boolContext                                       ../../../libIPLAY/lib//libos.a(task.o)
                                                  ../../../libIPLAY/lib//libos.a(interrupt.o)
                                                  ../../../libIPLAY/lib//libbios.a(exception.o)
buildJUNKsection                                  ../../../libIPLAY/lib//libavipacker.a(AVI_Packer.o)
build_AVI_Header                                  ../../../libIPLAY/lib//libavipacker.a(AVI_Packer.o)
                                                  ../../../libIPLAY/lib//libavipacker.a(AVI_packerAPI.o)
build_LIST_strl_audio                             ../../../libIPLAY/lib//libavipacker.a(AVI_Packer.o)
build_LIST_strl_video                             ../../../libIPLAY/lib//libavipacker.a(AVI_Packer.o)
cache_size_avi                                    ../../../libIPLAY/lib//libRecord.a(record_task.o)
                                                  ../../../libIPLAY/lib//libavipacker.a(AVI_Stream.o)
calculatePllParam                                 ../../../libIPLAY/lib//libbios.a(hal_Ckg.o)
charColor                                         ../../../libIPLAY/lib//libjpeg.a(jerror.o)
                                                  ../../../libIPLAY/lib//libjpeg.a(jidctfst.o)
                                                  ../../../libIPLAY/lib//libjpeg.a(jidctred.o)
                                                  ../../../libIPLAY/lib//libjpeg.a(jmemnobs.o)
                                                  ../../../libIPLAY/lib//libjpeg.a(jdsample.o)
                                                  ../../../libIPLAY/lib//libjpeg.a(jdcolor.o)
                                                  ../../../libIPLAY/lib//libjpeg.a(jdmainct.o)
                                                  ../../../libIPLAY/lib//libjpeg.a(jddctmgr.o)
                                                  ../../../libIPLAY/lib//libjpeg.a(jdpostct.o)
                                                  ../../../libIPLAY/lib//libjpeg.a(jutils.o)
                                                  ../../../libIPLAY/lib//libjpeg.a(jdhuff.o)
                                                  ../../../libIPLAY/lib//libjpeg.a(jdcoefct.o)
                                                  ../../../libIPLAY/lib//libjpeg.a(jdphuff.o)
                                                  ../../../libIPLAY/lib//libjpeg.a(jcomapi.o)
                                                  ../../../libIPLAY/lib//libjpeg.a(jdinput.o)
                                                  ../../../libIPLAY/lib//libjpeg.a(jdmarker.o)
                                                  ../../../libIPLAY/lib//libjpeg.a(jmemmgr.o)
                                                  ../../../libIPLAY/lib//libjpeg.a(jdmaster.o)
                                                  ../../../libIPLAY/lib//libjpeg.a(jdatasrc.o)
                                                  ../../../libIPLAY/lib//libjpeg.a(jdapimin.o)
                                                  ../../../libIPLAY/lib//libjpeg.a(jdapistd.o)
                                                  ../../../libIPLAY/lib//libjpeg.a(jpeg_decoder.o)
checkInput                                        ../../../libIPLAY/lib//libbios.a(agent.o)
checkNandIspRegion                                ../../../libIPLAY/lib//libsystem.a(ISP_Nand.o)
chg_wavformatexEndian                             ../../../libIPLAY/lib//libavipacker.a(AVI_Utility.o)
                                                  ../../../libIPLAY/lib//libavipacker.a(AVI_Packer.o)
chunksize                                         ../../../libIPLAY/lib//libavipacker.a(AVI_Utility.o)
                                                  ../../../libIPLAY/lib//libavipacker.a(AVI_Packer.o)
cleanup_glue                                      /cygdrive/e/mips/bin/../lib/gcc-lib/lexra-mpx-elf/3.2.1/../../../../lexra-mpx-elf/lib/soft-float/libc.a(reent.o)
close                                             ../../../libIPLAY/lib//libdemux.a(board.o)
                                                  /cygdrive/e/mips/bin/../lib/gcc-lib/lexra-mpx-elf/3.2.1/../../../../lexra-mpx-elf/lib/soft-float/libc.a(closer.o)
count_num                                         ../../../libIPLAY/lib//libRecord.a(record_task.o)
decodeFrameRate                                   ../../../libIPLAY/lib//libdisplay.a(idu.o)
decode_mcu_AC_first                               ../../../libIPLAY/lib//libjpeg.a(asm_jdphuff.o)
                                                  ../../../libIPLAY/lib//libjpeg.a(jdphuff.o)
decode_mcu_AC_refine                              ../../../libIPLAY/lib//libjpeg.a(asm_jdphuff.o)
                                                  ../../../libIPLAY/lib//libjpeg.a(jdphuff.o)
decode_mcu_DC_first                               ../../../libIPLAY/lib//libjpeg.a(asm_jdphuff.o)
                                                  ../../../libIPLAY/lib//libjpeg.a(jdphuff.o)
decode_mcu_DC_refine                              ../../../libIPLAY/lib//libjpeg.a(asm_jdphuff.o)
                                                  ../../../libIPLAY/lib//libjpeg.a(jdphuff.o)
dllDelayArray                                     ../../../libIPLAY/lib//libbios.a(hal_Ckg.o)
dpadd                                             /cygdrive/e/mips/bin/../lib/gcc-lib/lexra-mpx-elf/3.2.1/soft-float/libgcc.a(_addsub_df.o)
                                                  /cygdrive/e/mips/bin/../lib/gcc-lib/lexra-mpx-elf/3.2.1/../../../../lexra-mpx-elf/lib/soft-float/libc.a(dtoa.o)
dpcmp                                             /cygdrive/e/mips/bin/../lib/gcc-lib/lexra-mpx-elf/3.2.1/soft-float/libgcc.a(_compare_df.o)
                                                  /cygdrive/e/mips/bin/../lib/gcc-lib/lexra-mpx-elf/3.2.1/../../../../lexra-mpx-elf/lib/soft-float/libc.a(dtoa.o)
                                                  /cygdrive/e/mips/bin/../lib/gcc-lib/lexra-mpx-elf/3.2.1/../../../../lexra-mpx-elf/lib/soft-float/libc.a(vfprintf.o)
dpdiv                                             /cygdrive/e/mips/bin/../lib/gcc-lib/lexra-mpx-elf/3.2.1/soft-float/libgcc.a(_div_df.o)
                                                  /cygdrive/e/mips/bin/../lib/gcc-lib/lexra-mpx-elf/3.2.1/../../../../lexra-mpx-elf/lib/soft-float/libc.a(mprec.o)
                                                  /cygdrive/e/mips/bin/../lib/gcc-lib/lexra-mpx-elf/3.2.1/../../../../lexra-mpx-elf/lib/soft-float/libc.a(dtoa.o)
dpmul                                             /cygdrive/e/mips/bin/../lib/gcc-lib/lexra-mpx-elf/3.2.1/soft-float/libgcc.a(_mul_df.o)
                                                  /cygdrive/e/mips/bin/../lib/gcc-lib/lexra-mpx-elf/3.2.1/../../../../lexra-mpx-elf/lib/soft-float/libc.a(mprec.o)
                                                  /cygdrive/e/mips/bin/../lib/gcc-lib/lexra-mpx-elf/3.2.1/../../../../lexra-mpx-elf/lib/soft-float/libc.a(dtoa.o)
dpsub                                             /cygdrive/e/mips/bin/../lib/gcc-lib/lexra-mpx-elf/3.2.1/soft-float/libgcc.a(_addsub_df.o)
                                                  /cygdrive/e/mips/bin/../lib/gcc-lib/lexra-mpx-elf/3.2.1/../../../../lexra-mpx-elf/lib/soft-float/libc.a(dtoa.o)
                                                  /cygdrive/e/mips/bin/../lib/gcc-lib/lexra-mpx-elf/3.2.1/../../../../lexra-mpx-elf/lib/soft-float/libc.a(vfprintf.o)
dptoli                                            /cygdrive/e/mips/bin/../lib/gcc-lib/lexra-mpx-elf/3.2.1/soft-float/libgcc.a(_df_to_si.o)
                                                  /cygdrive/e/mips/bin/../lib/gcc-lib/lexra-mpx-elf/3.2.1/../../../../lexra-mpx-elf/lib/soft-float/libc.a(dtoa.o)
drawSpriteFunctions                               ../object/xpgDrawSprite.o
                                                  ../../../libIPLAY/lib//libxpg.a(xpgDraw.o)
dwDefaultPalette                                  ../../../libIPLAY/lib//libdisplay.a(osd4.o)
                                                  ../../../libIPLAY/lib//libdisplay.a(osd.o)
dwEndianConvert                                   ../../../libIPLAY/lib//libavipacker.a(AVI_Utility.o)
                                                  ../../../libIPLAY/lib//libavipacker.a(AVI_packerAPI.o)
dwLastTouchActionTime                             ../../lib//libui.a(uiTouchCtrller.o)
errno                                             /cygdrive/e/mips/bin/../lib/gcc-lib/lexra-mpx-elf/3.2.1/../../../../lexra-mpx-elf/lib/soft-float/libc.a(reent.o)
                                                  /cygdrive/e/mips/bin/../lib/gcc-lib/lexra-mpx-elf/3.2.1/../../../../lexra-mpx-elf/lib/soft-float/libc.a(readr.o)
                                                  /cygdrive/e/mips/bin/../lib/gcc-lib/lexra-mpx-elf/3.2.1/../../../../lexra-mpx-elf/lib/soft-float/libc.a(lseekr.o)
                                                  /cygdrive/e/mips/bin/../lib/gcc-lib/lexra-mpx-elf/3.2.1/../../../../lexra-mpx-elf/lib/soft-float/libc.a(fstatr.o)
                                                  /cygdrive/e/mips/bin/../lib/gcc-lib/lexra-mpx-elf/3.2.1/../../../../lexra-mpx-elf/lib/soft-float/libc.a(closer.o)
                                                  /cygdrive/e/mips/bin/../lib/gcc-lib/lexra-mpx-elf/3.2.1/../../../../lexra-mpx-elf/lib/soft-float/libc.a(writer.o)
                                                  /cygdrive/e/mips/bin/../lib/gcc-lib/lexra-mpx-elf/3.2.1/../../../../lexra-mpx-elf/lib/soft-float/libc.a(sbrkr.o)
ext_mem_calloc                                    ../../../libIPLAY/lib//libos.a(memory.o)
ext_mem_callocEx                                  ../../../libIPLAY/lib//libos.a(memory.o)
ext_mem_check                                     ../../../libIPLAY/lib//libos.a(memory.o)
                                                  ../../../libIPLAY/lib//libmpapi.a(mpImageFileApi.o)
ext_mem_free                                      ../../../libIPLAY/lib//libos.a(memory.o)
                                                  ../../../libIPLAY/lib//libimage.a(jpegEncode.o)
                                                  ../../../libIPLAY/lib//libavipacker.a(AVI_Packer.o)
                                                  ../../../libIPLAY/lib//libjpeg.a(jmemnobs.o)
                                                  ../../../libIPLAY/lib//libjpeg.a(jpeg_decoder.o)
                                                  ../../../libIPLAY/lib//libmpapi.a(mpStreamApi.o)
                                                  ../../../libIPLAY/lib//libmpapi.a(mpImageFileApi.o)
                                                  ../../../libIPLAY/lib//libimage.a(IMG_jpeg.o)
                                                  ../../../libIPLAY/lib//libimage.a(jpeg_hal.o)
                                                  ../../../libIPLAY/lib//libsensor.a(sensor_NT99140.o)
                                                  ../../../libIPLAY/lib//libsensor.a(sensor_manager.o)
                                                  ../../../libIPLAY/lib//libsystem.a(SetTabFunc.o)
                                                  ../../../libIPLAY/lib//libsystem.a(McardDevInfo.o)
                                                  ../../../libIPLAY/lib//libsystem.a(ISP_Nand.o)
                                                  ../../../libIPLAY/lib//libfile.a(filebrowser.o)
                                                  ../../../libIPLAY/lib//libfile.a(Format.o)
                                                  ../../../libIPLAY/lib//libfile.a(file.o)
                                                  ../../../libIPLAY/lib//libfile.a(drive.o)
                                                  ../../../libIPLAY/lib//libfile.a(dir.o)
                                                  ../../../libIPLAY/lib//libMcard.a(NandPhyAdv_Mp650.o)
                                                  ../../../libIPLAY/lib//libMcard.a(NandFTL.o)
                                                  ../object/isp.o
                                                  ../object/xpgFunc.o
                                                  ../object/main.o
ext_mem_freeEx                                    ../../../libIPLAY/lib//libos.a(memory.o)
                                                  ../../../libIPLAY/lib//libxpg.a(xpgDraw.o)
                                                  ../../../libIPLAY/lib//libxpg.a(xpgRole.o)
                                                  ../../../libIPLAY/lib//libxpg.a(xpg.o)
ext_mem_free_task_mem                             ../../../libIPLAY/lib//libos.a(memory.o)
ext_mem_get_free_space                            ../../../libIPLAY/lib//libos.a(memory.o)
                                                  ../../../libIPLAY/lib//libjpeg.a(jmemnobs.o)
                                                  ../../../libIPLAY/lib//libmpapi.a(mpImageFileApi.o)
ext_mem_malloc                                    ../../../libIPLAY/lib//libos.a(memory.o)
                                                  ../../../libIPLAY/lib//libimage.a(jpegEncode.o)
                                                  ../../../libIPLAY/lib//libxpg.a(xpgRole.o)
                                                  ../../../libIPLAY/lib//libavipacker.a(AVI_Packer.o)
                                                  ../../../libIPLAY/lib//libjpeg.a(jmemnobs.o)
                                                  ../../../libIPLAY/lib//libjpeg.a(jpeg_decoder.o)
                                                  ../../../libIPLAY/lib//libmpapi.a(mpImageFileApi.o)
                                                  ../../../libIPLAY/lib//libimage.a(IMG_jpeg.o)
                                                  ../../../libIPLAY/lib//libimage.a(jpeg_hal.o)
                                                  ../../../libIPLAY/lib//libsensor.a(sensor_NT99140.o)
                                                  ../../../libIPLAY/lib//libsystem.a(SetTabFunc.o)
                                                  ../../../libIPLAY/lib//libsystem.a(McardDevInfo.o)
                                                  ../../../libIPLAY/lib//libsystem.a(ISP_Nand.o)
                                                  ../../../libIPLAY/lib//libsystem.a(SystemMemory.o)
                                                  ../../../libIPLAY/lib//libfile.a(filebrowser.o)
                                                  ../../../libIPLAY/lib//libfile.a(Format.o)
                                                  ../../../libIPLAY/lib//libfile.a(file.o)
                                                  ../../../libIPLAY/lib//libfile.a(drive.o)
                                                  ../../../libIPLAY/lib//libfile.a(dir.o)
                                                  ../../../libIPLAY/lib//libMcard.a(NandPhyAdv_Mp650.o)
                                                  ../../../libIPLAY/lib//libMcard.a(NandFTL.o)
                                                  ../object/isp.o
                                                  ../object/xpgFunc.o
                                                  ../object/main.o
ext_mem_mallocEx                                  ../../../libIPLAY/lib//libos.a(memory.o)
                                                  ../../../libIPLAY/lib//libxpg.a(xpgDraw.o)
                                                  ../../../libIPLAY/lib//libxpg.a(xpgReader.o)
                                                  ../../../libIPLAY/lib//libxpg.a(xpg.o)
ext_mem_reallocm                                  ../../../libIPLAY/lib//libos.a(memory.o)
extend_test                                       ../../../libIPLAY/lib//libjpeg.a(jdphuff.o)
                                                  ../../../libIPLAY/lib//libjpeg.a(asm_jdphuff.o)
extname                                           ../../../libIPLAY/lib//libRecord.a(record_task.o)
fbrowser_xpgChangeDriveFunctionRegister           ../../../libIPLAY/lib//libfile.a(filebrowser.o)
                                                  ../object/main.o
fbrowser_xpgClearCatchFunctionRegister            ../../../libIPLAY/lib//libfile.a(filebrowser.o)
                                                  ../object/main.o
fbrowser_xpgUpdateIconAniFunctionRegister         ../../../libIPLAY/lib//libfile.a(filebrowser.o)
fflush                                            /cygdrive/e/mips/bin/../lib/gcc-lib/lexra-mpx-elf/3.2.1/../../../../lexra-mpx-elf/lib/soft-float/libc.a(fflush.o)
                                                  /cygdrive/e/mips/bin/../lib/gcc-lib/lexra-mpx-elf/3.2.1/../../../../lexra-mpx-elf/lib/soft-float/libc.a(fvwrite.o)
                                                  /cygdrive/e/mips/bin/../lib/gcc-lib/lexra-mpx-elf/3.2.1/../../../../lexra-mpx-elf/lib/soft-float/libc.a(findfp.o)
                                                  /cygdrive/e/mips/bin/../lib/gcc-lib/lexra-mpx-elf/3.2.1/../../../../lexra-mpx-elf/lib/soft-float/libc.a(vfprintf.o)
fileUiUpdateIconAniPtr                            ../../../libIPLAY/lib//libfile.a(file.o)
                                                  ../../../libIPLAY/lib//libfile.a(chain.o)
                                                  ../../../libIPLAY/lib//libfile.a(dir.o)
file_math                                         ../../../libIPLAY/lib//libavipacker.a(AVI_packerAPI.o)
file_size_avi                                     ../../../libIPLAY/lib//libRecord.a(record_task.o)
                                                  ../../../libIPLAY/lib//libavipacker.a(AVI_Stream.o)
fillAviMainHeader                                 ../../../libIPLAY/lib//libavipacker.a(AVI_Utility.o)
                                                  ../../../libIPLAY/lib//libavipacker.a(AVI_Packer.o)
fillHeader_Video_strf                             ../../../libIPLAY/lib//libavipacker.a(AVI_Utility.o)
                                                  ../../../libIPLAY/lib//libavipacker.a(AVI_Packer.o)
fillHeader_Video_strh                             ../../../libIPLAY/lib//libavipacker.a(AVI_Utility.o)
                                                  ../../../libIPLAY/lib//libavipacker.a(AVI_Packer.o)
fname                                             ../../../libIPLAY/lib//libRecord.a(record_task.o)
fps_record                                        ../../../libIPLAY/lib//libRecord.a(record_task.o)
                                                  ../../../libIPLAY/lib//libavipacker.a(AVI_Utility.o)
                                                  ../../../libIPLAY/lib//libavipacker.a(AVI_packerAPI.o)
fstat                                             ../../../libIPLAY/lib//libdemux.a(board.o)
                                                  /cygdrive/e/mips/bin/../lib/gcc-lib/lexra-mpx-elf/3.2.1/../../../../lexra-mpx-elf/lib/soft-float/libc.a(fstatr.o)
ftlGenLogicalAddr                                 ../../../libIPLAY/lib//libMcard.a(NandFTL.o)
gSetupMenuValue                                   ../object/Setup.o
g_IDU_444_422_Flag                                ../../../libIPLAY/lib//libdisplay.a(idu.o)
g_MinidvMode                                      ../object/xpgFunc.o
g_OsdLine                                         ../object/xpgFunc.o
g_bAniFlag                                        ../../../libIPLAY/lib//libsystem.a(global612.o)
                                                  ../../../libIPLAY/lib//libxpg.a(xpgDraw.o)
                                                  ../../../libIPLAY/lib//libjpeg.a(jerror.o)
                                                  ../../../libIPLAY/lib//libjpeg.a(jidctfst.o)
                                                  ../../../libIPLAY/lib//libjpeg.a(jidctred.o)
                                                  ../../../libIPLAY/lib//libjpeg.a(jmemnobs.o)
                                                  ../../../libIPLAY/lib//libjpeg.a(jdsample.o)
                                                  ../../../libIPLAY/lib//libjpeg.a(jdcolor.o)
                                                  ../../../libIPLAY/lib//libjpeg.a(jdmainct.o)
                                                  ../../../libIPLAY/lib//libjpeg.a(jddctmgr.o)
                                                  ../../../libIPLAY/lib//libjpeg.a(jdpostct.o)
                                                  ../../../libIPLAY/lib//libjpeg.a(jutils.o)
                                                  ../../../libIPLAY/lib//libjpeg.a(jdhuff.o)
                                                  ../../../libIPLAY/lib//libjpeg.a(jdcoefct.o)
                                                  ../../../libIPLAY/lib//libjpeg.a(jdphuff.o)
                                                  ../../../libIPLAY/lib//libjpeg.a(jcomapi.o)
                                                  ../../../libIPLAY/lib//libjpeg.a(jdinput.o)
                                                  ../../../libIPLAY/lib//libjpeg.a(jdmarker.o)
                                                  ../../../libIPLAY/lib//libjpeg.a(jmemmgr.o)
                                                  ../../../libIPLAY/lib//libjpeg.a(jdmaster.o)
                                                  ../../../libIPLAY/lib//libjpeg.a(jdatasrc.o)
                                                  ../../../libIPLAY/lib//libjpeg.a(jdapimin.o)
                                                  ../../../libIPLAY/lib//libjpeg.a(jdapistd.o)
                                                  ../../../libIPLAY/lib//libjpeg.a(jpeg_decoder.o)
                                                  ../../../libIPLAY/lib//libmpapi.a(mpStreamApi.o)
                                                  ../../../libIPLAY/lib//libmpapi.a(mpImageFileApi.o)
                                                  ../../../libIPLAY/lib//libimage.a(IMG_jpeg.o)
                                                  ../../../libIPLAY/lib//libimage.a(jpeg_hal.o)
                                                  ../../../libIPLAY/lib//libdisplay.a(osd4.o)
                                                  ../object/xpgBrowser.o
                                                  ../object/xpgDriveFunc.o
                                                  ../object/Setup.o
                                                  ../object/xpgFunc.o
g_bDisplayMode                                    ../../../libIPLAY/lib//libsensor.a(sensor_NT99140.o)
                                                  ../object/xpgProcSensorData.o
g_bDisplayUseIpw2                                 ../object/xpgProcSensorData.o
g_bFixFontFlag                                    ../../../libIPLAY/lib//libdisplay.a(imgString.o)
g_bNeedUpdateOsd                                  ../object/xpgFunc.o
g_bVolumeIndex                                    ../../../libIPLAY/lib//libsystem.a(global612.o)
                                                  ../object/camcorder_func.o
g_bXpgStatus                                      ../../../libIPLAY/lib//libsystem.a(SystemConfig.o)
                                                  ../object/xpgBrowser.o
                                                  ../object/xpgDriveFunc.o
                                                  ../object/xpgFunc.o
g_boNeedRepaint                                   ../../../libIPLAY/lib//libxpg.a(xpg.o)
                                                  ../../../libIPLAY/lib//libxpg.a(xpgUi.o)
                                                  ../../../libIPLAY/lib//libxpg.a(xpgDraw.o)
                                                  ../object/xpgBrowser.o
g_boSaveFileToSPI                                 ../object/xpgFunc.o
g_dwCurIndex                                      ../object/xpgFunc.o
                                                  ../object/xpgDrawSprite.o
g_dwModeIconStatus                                ../object/xpgFunc.o
                                                  ../object/xpgDrawSprite.o
g_dwRecordStartTime                               ../../../libIPLAY/lib//libavipacker.a(AVI_packerAPI.o)
g_dwSystemFontColor                               ../../../libIPLAY/lib//libdisplay.a(imgString.o)
g_jpegEcodeQualityLevel                           ../../../libIPLAY/lib//libimage.a(jpegEncode.o)
g_mstPanel                                        ../../../libIPLAY/lib//libdisplay.a(IduTable.o)
                                                  ../../../libIPLAY/lib//libdisplay.a(idu.o)
g_mstScreenTable                                  ../../../libIPLAY/lib//libdisplay.a(IduTable.o)
                                                  ../../../libIPLAY/lib//libdisplay.a(idu.o)
                                                  ../../../libIPLAY/lib//libsystem.a(SystemConfig.o)
                                                  ../object/main.o
g_mstTCON                                         ../../../libIPLAY/lib//libdisplay.a(IduTable.o)
                                                  ../../../libIPLAY/lib//libdisplay.a(idu.o)
g_pMovieScreenWin                                 ../../../libIPLAY/lib//libsystem.a(SystemConfig.o)
g_pXpgCanvasWin                                   ../../../libIPLAY/lib//libxpg.a(xpgDraw.o)
g_pbChaseBuffer                                   ../../../libIPLAY/lib//libimage.a(jpeg_hal.o)
g_psAiu                                           ../../../libIPLAY/lib//libsystem.a(global612.o)
g_psBiu                                           ../../../libIPLAY/lib//libsystem.a(global612.o)
g_psClkSs1                                        ../../../libIPLAY/lib//libsystem.a(global612.o)
                                                  ../../../libIPLAY/lib//libdisplay.a(idu.o)
                                                  ../../../libIPLAY/lib//libMcard.a(Uti.o)
                                                  ../object/main.o
g_psClkSs2                                        ../../../libIPLAY/lib//libsystem.a(global612.o)
g_psClock                                         ../../../libIPLAY/lib//libsystem.a(global612.o)
g_psCurImageFile                                  ../../../libIPLAY/lib//libmpapi.a(mpImageFileApi.o)
g_psCurJpeg                                       ../../../libIPLAY/lib//libimage.a(jpeg_hal.o)
                                                  ../../../libIPLAY/lib//libimage.a(IMG_jpeg.o)
g_psDma                                           ../../../libIPLAY/lib//libsystem.a(global612.o)
g_psDmaAiu                                        ../../../libIPLAY/lib//libsystem.a(global612.o)
g_psGpio                                          ../../../libIPLAY/lib//libsystem.a(global612.o)
                                                  ../../../libIPLAY/lib//libtouchctrl.a(tc_gt911.o)
                                                  ../../../libIPLAY/lib//libsensor.a(sensor_driver_NT99140.o)
g_psSetupMenu                                     ../object/Setup.o
                                                  ../object/xpgProcSensorData.o
g_psSystemConfig                                  ../../../libIPLAY/lib//libsystem.a(SystemConfig.o)
                                                  ../../../libIPLAY/lib//libimage.a(jpegEncode.o)
                                                  ../../../libIPLAY/lib//libxpg.a(xpgDraw.o)
                                                  ../../../libIPLAY/lib//libmpapi.a(mpImageFileApi.o)
                                                  ../../../libIPLAY/lib//libmpapi.a(mpImageResizeApi.o)
                                                  ../../../libIPLAY/lib//libmpapi.a(api_main.o)
                                                  ../../../libIPLAY/lib//libimage.a(jpeg_hal.o)
                                                  ../../../libIPLAY/lib//libdisplay.a(scaler_650.o)
                                                  ../../../libIPLAY/lib//libdisplay.a(imgWin.o)
                                                  ../../../libIPLAY/lib//libdisplay.a(osd.o)
                                                  ../../../libIPLAY/lib//libdisplay.a(idu.o)
                                                  ../../../libIPLAY/lib//libsystem.a(SystemMemory.o)
                                                  ../../../libIPLAY/lib//libfile.a(filebrowser.o)
                                                  ../../../libIPLAY/lib//libfile.a(file.o)
                                                  ../object/xpgPhotoFunc.o
                                                  ../object/UI_FileSystem.o
                                                  ../object/xpgBrowser.o
                                                  ../object/xpgDriveFunc.o
                                                  ../object/imageplayer.o
                                                  ../object/main.o
g_pstBrowser                                      ../../../libIPLAY/lib//libfile.a(filebrowser.o)
                                                  ../object/xpgPhotoFunc.o
                                                  ../object/xpgProcSensorData.o
                                                  ../object/xpgBrowser.o
                                                  ../object/xpgDrawSprite.o
                                                  ../object/xpgFunc.o
                                                  ../object/main.o
g_pstScalerPara                                   ../../../libIPLAY/lib//libdisplay.a(scaler_650.o)
g_pstXpgMovie                                     ../../../libIPLAY/lib//libxpg.a(xpg.o)
                                                  ../../../libIPLAY/lib//libxpg.a(xpgMovie.o)
                                                  ../../lib//libui.a(uiTouchCtrller.o)
                                                  ../object/xpgProcSensorData.o
                                                  ../object/xpgBrowser.o
                                                  ../object/xpgDrawSprite.o
                                                  ../object/xpgFunc.o
g_sJpeg                                           ../../../libIPLAY/lib//libmpapi.a(mpImageFileApi.o)
                                                  ../../../libIPLAY/lib//libimage.a(IMG_jpeg.o)
                                                  ../../../libIPLAY/lib//libimage.a(jpeg_hal.o)
g_sJpegStream                                     ../../../libIPLAY/lib//libimage.a(jpeg_hal.o)
g_sMovieWin                                       ../../../libIPLAY/lib//libsystem.a(global612.o)
g_sXpgCanvasWin                                   ../../../libIPLAY/lib//libxpg.a(xpgDraw.o)
g_stBrowser                                       ../../../libIPLAY/lib//libfile.a(filebrowser.o)
                                                  ../object/xpgBrowser.o
g_stScalerPara                                    ../../../libIPLAY/lib//libdisplay.a(scaler_650.o)
g_stXpgMovie                                      ../../../libIPLAY/lib//libxpg.a(xpgUi.o)
                                                  ../../../libIPLAY/lib//libxpg.a(xpgDraw.o)
                                                  ../../../libIPLAY/lib//libxpg.a(xpg.o)
                                                  ../../lib//libui.a(uiTouchCtrller.o)
                                                  ../object/xpgBrowser.o
g_swAutoFocusState                                ../object/xpgProcSensorData.o
g_swGetCenterState                                ../object/xpgProcSensorData.o
g_swProcState                                     ../object/xpgProcSensorData.o
g_wDecodedImageType                               ../../../libIPLAY/lib//libmpapi.a(mpImageFileApi.o)
                                                  ../../../libIPLAY/lib//libimage.a(jpeg_hal.o)
g_wElectrodePos                                   ../object/xpgProcSensorData.o
getNandInfo                                       ../../../libIPLAY/lib//libMcard.a(NandPhyAdv_Mp650.o)
getPacket                                         ../../../libIPLAY/lib//libbios.a(agent.o)
getPcmInfo                                        ../../../libIPLAY/lib//libavipacker.a(AVI_packerAPI.o)
get_cur_timeL                                     ../../../libIPLAY/lib//libos.a(systimer.o)
get_elapsed_timeL                                 ../../../libIPLAY/lib//libos.a(systimer.o)
get_mem_info                                      ../../../libIPLAY/lib//libdemux.a(board.o)
get_onepicture                                    ../../../libIPLAY/lib//libavipacker.a(AVI_Stream.o)
getdwAllocSize                                    ../../../libIPLAY/lib//libxpg.a(xpgDraw.o)
getpagesize                                       ../../../libIPLAY/lib//libdemux.a(board.o)
getpicturebuf                                     ../../../libIPLAY/lib//libavipacker.a(AVI_Stream.o)
getpid                                            ../../../libIPLAY/lib//libdemux.a(board.o)
getstr                                            ../object/xpgString.o
                                                  ../object/xpgDrawSprite.o
gettimeofday                                      ../../../libIPLAY/lib//libdemux.a(board.o)
gtp_read_version                                  ../../../libIPLAY/lib//libtouchctrl.a(tc_gt911.o)
heap_max                                          ../../../libIPLAY/lib//libdemux.a(board.o)
idx_1                                             ../../../libIPLAY/lib//libavipacker.a(AVI_packerAPI.o)
image_overlay                                     ../../../libIPLAY/lib//libdisplay.a(scaler_650.o)
                                                  ../../../libIPLAY/lib//libmpapi.a(mpImageResizeApi.o)
image_scale                                       ../../../libIPLAY/lib//libdisplay.a(scaler_650.o)
                                                  ../../../libIPLAY/lib//libmpapi.a(mpImageResizeApi.o)
image_scale_mjpg_bypass                           ../../../libIPLAY/lib//libdisplay.a(scaler_650.o)
                                                  ../../../libIPLAY/lib//libmpapi.a(mpImageResizeApi.o)
image_scale_mpv2mem                               ../../../libIPLAY/lib//libdisplay.a(scaler_650.o)
image_scale_mpv_bypass                            ../../../libIPLAY/lib//libdisplay.a(scaler_650.o)
                                                  ../../../libIPLAY/lib//libmpapi.a(mpImageResizeApi.o)
image_scale_non_filter                            ../../../libIPLAY/lib//libdisplay.a(scaler_650.o)
                                                  ../../../libIPLAY/lib//libmpapi.a(mpImageResizeApi.o)
index_close                                       ../../../libIPLAY/lib//libavipacker.a(AVI_packerAPI.o)
                                                  ../../../libIPLAY/lib//libavipacker.a(AVI_Stream.o)
index_count                                       ../../../libIPLAY/lib//libavipacker.a(AVI_packerAPI.o)
ipu_overlay_650_blend                             ../../../libIPLAY/lib//libdisplay.a(scaler_650.o)
ipu_overlay_bypass_scale_650                      ../../../libIPLAY/lib//libdisplay.a(scaler_650.o)
ipu_reset                                         ../../../libIPLAY/lib//libdisplay.a(scaler_650.o)
                                                  ../../../libIPLAY/lib//libsensor.a(sensor_NT99140.o)
isUTF8Style1                                      ../../../libIPLAY/lib//libsystem.a(global612.o)
isUTF8Style2                                      ../../../libIPLAY/lib//libsystem.a(global612.o)
isUTF8Style3                                      ../../../libIPLAY/lib//libsystem.a(global612.o)
isUTF8Style4                                      ../../../libIPLAY/lib//libsystem.a(global612.o)
isUTF8Style5                                      ../../../libIPLAY/lib//libsystem.a(global612.o)
isUTF8Style6                                      ../../../libIPLAY/lib//libsystem.a(global612.o)
isatty                                            ../../../libIPLAY/lib//libdemux.a(board.o)
                                                  /cygdrive/e/mips/bin/../lib/gcc-lib/lexra-mpx-elf/3.2.1/../../../../lexra-mpx-elf/lib/soft-float/libc.a(makebuf.o)
isinf                                             /cygdrive/e/mips/bin/../lib/gcc-lib/lexra-mpx-elf/3.2.1/../../../../lexra-mpx-elf/lib/soft-float/libc.a(s_isinf.o)
                                                  /cygdrive/e/mips/bin/../lib/gcc-lib/lexra-mpx-elf/3.2.1/../../../../lexra-mpx-elf/lib/soft-float/libc.a(vfprintf.o)
isnan                                             /cygdrive/e/mips/bin/../lib/gcc-lib/lexra-mpx-elf/3.2.1/../../../../lexra-mpx-elf/lib/soft-float/libc.a(s_isnan.o)
                                                  /cygdrive/e/mips/bin/../lib/gcc-lib/lexra-mpx-elf/3.2.1/../../../../lexra-mpx-elf/lib/soft-float/libc.a(vfprintf.o)
jcopy_block_row                                   ../../../libIPLAY/lib//libjpeg.a(jutils.o)
jcopy_sample_rows                                 ../../../libIPLAY/lib//libjpeg.a(jutils.o)
                                                  ../../../libIPLAY/lib//libjpeg.a(jdsample.o)
jdiv_round_up                                     ../../../libIPLAY/lib//libjpeg.a(jutils.o)
                                                  ../../../libIPLAY/lib//libjpeg.a(jdinput.o)
                                                  ../../../libIPLAY/lib//libjpeg.a(jdmaster.o)
jinit_color_deconverter                           ../../../libIPLAY/lib//libjpeg.a(jdcolor.o)
                                                  ../../../libIPLAY/lib//libjpeg.a(jdmaster.o)
jinit_d_coef_controller                           ../../../libIPLAY/lib//libjpeg.a(jdcoefct.o)
                                                  ../../../libIPLAY/lib//libjpeg.a(jdmaster.o)
jinit_d_main_controller                           ../../../libIPLAY/lib//libjpeg.a(jdmainct.o)
                                                  ../../../libIPLAY/lib//libjpeg.a(jdmaster.o)
jinit_d_post_controller                           ../../../libIPLAY/lib//libjpeg.a(jdpostct.o)
                                                  ../../../libIPLAY/lib//libjpeg.a(jdmaster.o)
jinit_huff_decoder                                ../../../libIPLAY/lib//libjpeg.a(jdhuff.o)
                                                  ../../../libIPLAY/lib//libjpeg.a(jdmaster.o)
jinit_input_controller                            ../../../libIPLAY/lib//libjpeg.a(jdinput.o)
                                                  ../../../libIPLAY/lib//libjpeg.a(jdapimin.o)
jinit_inverse_dct                                 ../../../libIPLAY/lib//libjpeg.a(jddctmgr.o)
                                                  ../../../libIPLAY/lib//libjpeg.a(jdmaster.o)
jinit_marker_reader                               ../../../libIPLAY/lib//libjpeg.a(jdmarker.o)
                                                  ../../../libIPLAY/lib//libjpeg.a(jdapimin.o)
jinit_master_decompress                           ../../../libIPLAY/lib//libjpeg.a(jdmaster.o)
                                                  ../../../libIPLAY/lib//libjpeg.a(jdapistd.o)
jinit_memory_mgr                                  ../../../libIPLAY/lib//libjpeg.a(jmemmgr.o)
                                                  ../../../libIPLAY/lib//libjpeg.a(jdapimin.o)
jinit_phuff_decoder                               ../../../libIPLAY/lib//libjpeg.a(jdphuff.o)
                                                  ../../../libIPLAY/lib//libjpeg.a(jdmaster.o)
jinit_upsampler                                   ../../../libIPLAY/lib//libjpeg.a(jdsample.o)
                                                  ../../../libIPLAY/lib//libjpeg.a(jdmaster.o)
jpeg_CreateDecompress                             ../../../libIPLAY/lib//libjpeg.a(jdapimin.o)
                                                  ../../../libIPLAY/lib//libjpeg.a(jpeg_decoder.o)
jpeg_abort                                        ../../../libIPLAY/lib//libjpeg.a(jcomapi.o)
                                                  ../../../libIPLAY/lib//libjpeg.a(jdapimin.o)
jpeg_abort_decompress                             ../../../libIPLAY/lib//libjpeg.a(jdapimin.o)
jpeg_alloc_huff_table                             ../../../libIPLAY/lib//libjpeg.a(jcomapi.o)
                                                  ../../../libIPLAY/lib//libjpeg.a(jdmarker.o)
                                                  ../../../libIPLAY/lib//libjpeg.a(jdapimin.o)
jpeg_alloc_quant_table                            ../../../libIPLAY/lib//libjpeg.a(jcomapi.o)
                                                  ../../../libIPLAY/lib//libjpeg.a(jdmarker.o)
jpeg_calc_output_dimensions                       ../../../libIPLAY/lib//libjpeg.a(jdmaster.o)
                                                  ../../../libIPLAY/lib//libjpeg.a(jpeg_decoder.o)
jpeg_consume_input                                ../../../libIPLAY/lib//libjpeg.a(jdapimin.o)
jpeg_create_scan_info                             ../../../libIPLAY/lib//libjpeg.a(jdapimin.o)
                                                  ../../../libIPLAY/lib//libjpeg.a(jdmarker.o)
jpeg_destroy                                      ../../../libIPLAY/lib//libjpeg.a(jcomapi.o)
                                                  ../../../libIPLAY/lib//libjpeg.a(jdapimin.o)
jpeg_destroy_decompress                           ../../../libIPLAY/lib//libjpeg.a(jdapimin.o)
jpeg_fill_bit_buffer                              ../../../libIPLAY/lib//libjpeg.a(jdhuff.o)
                                                  ../../../libIPLAY/lib//libjpeg.a(asm_jdphuff.o)
                                                  ../../../libIPLAY/lib//libjpeg.a(jdphuff.o)
jpeg_finish_decompress                            ../../../libIPLAY/lib//libjpeg.a(jdapimin.o)
jpeg_finish_output                                ../../../libIPLAY/lib//libjpeg.a(jdapistd.o)
jpeg_free_large                                   ../../../libIPLAY/lib//libjpeg.a(jmemnobs.o)
                                                  ../../../libIPLAY/lib//libjpeg.a(jmemmgr.o)
jpeg_free_small                                   ../../../libIPLAY/lib//libjpeg.a(jmemnobs.o)
                                                  ../../../libIPLAY/lib//libjpeg.a(jmemmgr.o)
jpeg_get_large                                    ../../../libIPLAY/lib//libjpeg.a(jmemnobs.o)
                                                  ../../../libIPLAY/lib//libjpeg.a(jmemmgr.o)
jpeg_get_small                                    ../../../libIPLAY/lib//libjpeg.a(jmemnobs.o)
                                                  ../../../libIPLAY/lib//libjpeg.a(jmemmgr.o)
jpeg_has_multiple_scans                           ../../../libIPLAY/lib//libjpeg.a(jdapimin.o)
                                                  ../../../libIPLAY/lib//libjpeg.a(jpeg_decoder.o)
jpeg_huff_decode                                  ../../../libIPLAY/lib//libjpeg.a(jdhuff.o)
                                                  ../../../libIPLAY/lib//libjpeg.a(asm_jdphuff.o)
                                                  ../../../libIPLAY/lib//libjpeg.a(jdphuff.o)
jpeg_idct_1x1                                     ../../../libIPLAY/lib//libjpeg.a(jidctred.o)
                                                  ../../../libIPLAY/lib//libjpeg.a(jddctmgr.o)
jpeg_idct_2x2                                     ../../../libIPLAY/lib//libjpeg.a(jidctred.o)
                                                  ../../../libIPLAY/lib//libjpeg.a(jddctmgr.o)
jpeg_idct_4x4                                     ../../../libIPLAY/lib//libjpeg.a(jidctred.o)
                                                  ../../../libIPLAY/lib//libjpeg.a(jddctmgr.o)
jpeg_idct_ifast                                   ../../../libIPLAY/lib//libjpeg.a(jidctfst.o)
                                                  ../../../libIPLAY/lib//libjpeg.a(jddctmgr.o)
jpeg_input_complete                               ../../../libIPLAY/lib//libjpeg.a(jdapimin.o)
jpeg_make_d_derived_tbl                           ../../../libIPLAY/lib//libjpeg.a(jdhuff.o)
                                                  ../../../libIPLAY/lib//libjpeg.a(jdphuff.o)
jpeg_mem_available                                ../../../libIPLAY/lib//libjpeg.a(jmemnobs.o)
                                                  ../../../libIPLAY/lib//libjpeg.a(jmemmgr.o)
jpeg_mem_free                                     ../../../libIPLAY/lib//libjpeg.a(jmemnobs.o)
                                                  ../../../libIPLAY/lib//libjpeg.a(jpeg_decoder.o)
jpeg_mem_init                                     ../../../libIPLAY/lib//libjpeg.a(jmemnobs.o)
                                                  ../../../libIPLAY/lib//libjpeg.a(jmemmgr.o)
jpeg_mem_term                                     ../../../libIPLAY/lib//libjpeg.a(jmemnobs.o)
                                                  ../../../libIPLAY/lib//libjpeg.a(jmemmgr.o)
jpeg_natural_bit_order                            ../../../libIPLAY/lib//libjpeg.a(jutils.o)
                                                  ../../../libIPLAY/lib//libjpeg.a(jdphuff.o)
jpeg_natural_order                                ../../../libIPLAY/lib//libjpeg.a(jutils.o)
                                                  ../../../libIPLAY/lib//libjpeg.a(asm_jdphuff.o)
                                                  ../../../libIPLAY/lib//libjpeg.a(jdhuff.o)
                                                  ../../../libIPLAY/lib//libjpeg.a(jdphuff.o)
                                                  ../../../libIPLAY/lib//libjpeg.a(jdmarker.o)
jpeg_new_colormap                                 ../../../libIPLAY/lib//libjpeg.a(jdmaster.o)
jpeg_open_backing_store                           ../../../libIPLAY/lib//libjpeg.a(jmemnobs.o)
                                                  ../../../libIPLAY/lib//libjpeg.a(jmemmgr.o)
jpeg_read_header                                  ../../../libIPLAY/lib//libjpeg.a(jdapimin.o)
                                                  ../../../libIPLAY/lib//libjpeg.a(jpeg_decoder.o)
jpeg_read_raw_data                                ../../../libIPLAY/lib//libjpeg.a(jdapistd.o)
jpeg_read_scanlines                               ../../../libIPLAY/lib//libjpeg.a(jdapistd.o)
                                                  ../../../libIPLAY/lib//libjpeg.a(jpeg_decoder.o)
jpeg_restore_scan_info                            ../../../libIPLAY/lib//libjpeg.a(jdapimin.o)
                                                  ../../../libIPLAY/lib//libjpeg.a(jdinput.o)
                                                  ../../../libIPLAY/lib//libjpeg.a(jdmarker.o)
jpeg_resync_to_restart                            ../../../libIPLAY/lib//libjpeg.a(jdmarker.o)
                                                  ../../../libIPLAY/lib//libjpeg.a(jdatasrc.o)
jpeg_save_markers                                 ../../../libIPLAY/lib//libjpeg.a(jdmarker.o)
jpeg_save_scan_info                               ../../../libIPLAY/lib//libjpeg.a(jdapimin.o)
                                                  ../../../libIPLAY/lib//libjpeg.a(jdinput.o)
jpeg_search_next_scan                             ../../../libIPLAY/lib//libjpeg.a(jdapistd.o)
                                                  ../../../libIPLAY/lib//libjpeg.a(jpeg_decoder.o)
jpeg_set_marker_processor                         ../../../libIPLAY/lib//libjpeg.a(jdmarker.o)
jpeg_start_decompress                             ../../../libIPLAY/lib//libjpeg.a(jdapistd.o)
                                                  ../../../libIPLAY/lib//libjpeg.a(jpeg_decoder.o)
jpeg_start_output                                 ../../../libIPLAY/lib//libjpeg.a(jdapistd.o)
jpeg_std_error                                    ../../../libIPLAY/lib//libjpeg.a(jerror.o)
                                                  ../../../libIPLAY/lib//libjpeg.a(jpeg_decoder.o)
jpeg_std_message_table                            ../../../libIPLAY/lib//libjpeg.a(jerror.o)
jpeg_stream_src                                   ../../../libIPLAY/lib//libjpeg.a(jdatasrc.o)
                                                  ../../../libIPLAY/lib//libjpeg.a(jdmarker.o)
                                                  ../../../libIPLAY/lib//libjpeg.a(jpeg_decoder.o)
jpeg_switch_stream_src                            ../../../libIPLAY/lib//libjpeg.a(jdatasrc.o)
                                                  ../../../libIPLAY/lib//libjpeg.a(jdinput.o)
                                                  ../../../libIPLAY/lib//libjpeg.a(jdmarker.o)
jpg_cnt                                           ../../../libIPLAY/lib//libavipacker.a(AVI_packerAPI.o)
                                                  ../../../libIPLAY/lib//libavipacker.a(AVI_Utility.o)
jpg_size_1                                        ../../../libIPLAY/lib//libavipacker.a(AVI_packerAPI.o)
jpg_size_2                                        ../../../libIPLAY/lib//libavipacker.a(AVI_Stream.o)
jpg_size_total                                    ../../../libIPLAY/lib//libavipacker.a(AVI_packerAPI.o)
jround_up                                         ../../../libIPLAY/lib//libjpeg.a(jutils.o)
                                                  ../../../libIPLAY/lib//libjpeg.a(jdsample.o)
                                                  ../../../libIPLAY/lib//libjpeg.a(jdcoefct.o)
                                                  ../../../libIPLAY/lib//libjpeg.a(jdinput.o)
jzero_far                                         ../../../libIPLAY/lib//libjpeg.a(jutils.o)
                                                  ../../../libIPLAY/lib//libjpeg.a(jdcoefct.o)
                                                  ../../../libIPLAY/lib//libjpeg.a(jmemmgr.o)
ker_mem_Relink                                    ../../../libIPLAY/lib//libos.a(memory.o)
ker_mem_check                                     ../../../libIPLAY/lib//libos.a(memory.o)
ker_mem_free                                      ../../../libIPLAY/lib//libos.a(memory.o)
                                                  ../../../libIPLAY/lib//libfile.a(filebrowser.o)
                                                  ../../../libIPLAY/lib//libfile.a(file.o)
                                                  ../../../libIPLAY/lib//libfile.a(drive.o)
                                                  ../../../libIPLAY/lib//libfile.a(chain.o)
                                                  ../../../libIPLAY/lib//libfile.a(dir.o)
                                                  ../../../libIPLAY/lib//libMcard.a(NandFTL.o)
                                                  ../../../libIPLAY/lib//libos.a(message.o)
ker_mem_free_task_mem                             ../../../libIPLAY/lib//libos.a(memory.o)
                                                  ../../../libIPLAY/lib//libos.a(task.o)
ker_mem_get_free_space                            ../../../libIPLAY/lib//libos.a(memory.o)
ker_mem_init                                      ../../../libIPLAY/lib//libos.a(memory.o)
                                                  ../../../libIPLAY/lib//libsystem.a(SystemMemory.o)
ker_mem_malloc                                    ../../../libIPLAY/lib//libos.a(memory.o)
                                                  ../../../libIPLAY/lib//libfile.a(filebrowser.o)
                                                  ../../../libIPLAY/lib//libfile.a(file.o)
                                                  ../../../libIPLAY/lib//libfile.a(drive.o)
                                                  ../../../libIPLAY/lib//libfile.a(chain.o)
                                                  ../../../libIPLAY/lib//libfile.a(dir.o)
                                                  ../../../libIPLAY/lib//libMcard.a(NandFTL.o)
                                                  ../../../libIPLAY/lib//libos.a(message.o)
                                                  ../../../libIPLAY/lib//libos.a(task.o)
ker_mem_reallocm                                  ../../../libIPLAY/lib//libos.a(memory.o)
kill                                              ../../../libIPLAY/lib//libdemux.a(board.o)
langid                                            ../object/xpgString.o
litodp                                            /cygdrive/e/mips/bin/../lib/gcc-lib/lexra-mpx-elf/3.2.1/soft-float/libgcc.a(_si_to_df.o)
                                                  /cygdrive/e/mips/bin/../lib/gcc-lib/lexra-mpx-elf/3.2.1/../../../../lexra-mpx-elf/lib/soft-float/libc.a(dtoa.o)
localeconv                                        /cygdrive/e/mips/bin/../lib/gcc-lib/lexra-mpx-elf/3.2.1/../../../../lexra-mpx-elf/lib/soft-float/libc.a(locale.o)
                                                  /cygdrive/e/mips/bin/../lib/gcc-lib/lexra-mpx-elf/3.2.1/../../../../lexra-mpx-elf/lib/soft-float/libc.a(vfprintf.o)
lock_semaph                                       ../../../libIPLAY/lib//libavipacker.a(AVI_packerAPI.o)
longjmp                                           /cygdrive/e/mips/bin/../lib/gcc-lib/lexra-mpx-elf/3.2.1/../../../../lexra-mpx-elf/lib/soft-float/libc.a(setjmp.o)
                                                  ../../../libIPLAY/lib//libjpeg.a(jpeg_decoder.o)
lseek                                             ../../../libIPLAY/lib//libdemux.a(board.o)
                                                  /cygdrive/e/mips/bin/../lib/gcc-lib/lexra-mpx-elf/3.2.1/../../../../lexra-mpx-elf/lib/soft-float/libc.a(lseekr.o)
main                                              ../object/main.o
                                                  ../../../libIPLAY/lib//libbios.a(startup.o)
mem_Relink                                        ../../../libIPLAY/lib//libos.a(memory.o)
mem_Zones                                         ../../../libIPLAY/lib//libos.a(memory.o)
mem_calloc                                        ../../../libIPLAY/lib//libos.a(memory.o)
mem_callocEx                                      ../../../libIPLAY/lib//libos.a(memory.o)
mem_free                                          ../../../libIPLAY/lib//libos.a(memory.o)
mem_freeEx                                        ../../../libIPLAY/lib//libos.a(memory.o)
mem_free_task_mem                                 ../../../libIPLAY/lib//libos.a(memory.o)
mem_get_free_space                                ../../../libIPLAY/lib//libos.a(memory.o)
mem_get_free_space_total                          ../../../libIPLAY/lib//libos.a(memory.o)
                                                  ../object/xpgPhotoFunc.o
mem_malloc                                        ../../../libIPLAY/lib//libos.a(memory.o)
mem_mallocEx                                      ../../../libIPLAY/lib//libos.a(memory.o)
mem_reallocm                                      ../../../libIPLAY/lib//libos.a(memory.o)
memchr                                            /cygdrive/e/mips/bin/../lib/gcc-lib/lexra-mpx-elf/3.2.1/../../../../lexra-mpx-elf/lib/soft-float/libc.a(memchr.o)
                                                  /cygdrive/e/mips/bin/../lib/gcc-lib/lexra-mpx-elf/3.2.1/../../../../lexra-mpx-elf/lib/soft-float/libc.a(fvwrite.o)
                                                  /cygdrive/e/mips/bin/../lib/gcc-lib/lexra-mpx-elf/3.2.1/../../../../lexra-mpx-elf/lib/soft-float/libc.a(vfprintf.o)
memcmp                                            /cygdrive/e/mips/bin/../lib/gcc-lib/lexra-mpx-elf/3.2.1/../../../../lexra-mpx-elf/lib/soft-float/libc.a(memcmp.o)
                                                  ../../../libIPLAY/lib//libfile.a(file.o)
                                                  ../../../libIPLAY/lib//libfile.a(drive.o)
                                                  ../../../libIPLAY/lib//libMcard.a(NandPhyAdv_Mp650.o)
memcpy                                            /cygdrive/e/mips/bin/../lib/gcc-lib/lexra-mpx-elf/3.2.1/../../../../lexra-mpx-elf/lib/soft-float/libc.a(memcpy.o)
                                                  ../../../libIPLAY/lib//libimage.a(jpegEncode.o)
                                                  /cygdrive/e/mips/bin/../lib/gcc-lib/lexra-mpx-elf/3.2.1/soft-float/libgcc.a(_addsub_df.o)
                                                  /cygdrive/e/mips/bin/../lib/gcc-lib/lexra-mpx-elf/3.2.1/../../../../lexra-mpx-elf/lib/soft-float/libc.a(reallocr.o)
                                                  /cygdrive/e/mips/bin/../lib/gcc-lib/lexra-mpx-elf/3.2.1/../../../../lexra-mpx-elf/lib/soft-float/libc.a(mprec.o)
                                                  /cygdrive/e/mips/bin/../lib/gcc-lib/lexra-mpx-elf/3.2.1/../../../../lexra-mpx-elf/lib/soft-float/libc.a(dtoa.o)
                                                  ../../../libIPLAY/lib//libxpg.a(xpgRole.o)
                                                  ../../../libIPLAY/lib//libtouchctrl.a(tc_gt911.o)
                                                  ../../../libIPLAY/lib//libRecord.a(record_task.o)
                                                  ../../../libIPLAY/lib//libavipacker.a(AVI_Utility.o)
                                                  ../../../libIPLAY/lib//libavipacker.a(AVI_packerAPI.o)
                                                  ../../../libIPLAY/lib//libjpeg.a(asm_jdphuff.o)
                                                  ../../../libIPLAY/lib//libjpeg.a(jutils.o)
                                                  ../../../libIPLAY/lib//libjpeg.a(jdhuff.o)
                                                  ../../../libIPLAY/lib//libjpeg.a(jdphuff.o)
                                                  ../../../libIPLAY/lib//libjpeg.a(jdinput.o)
                                                  ../../../libIPLAY/lib//libjpeg.a(jdmarker.o)
                                                  ../../../libIPLAY/lib//libjpeg.a(jdmaster.o)
                                                  ../../../libIPLAY/lib//libjpeg.a(jdatasrc.o)
                                                  ../../../libIPLAY/lib//libjpeg.a(jdapimin.o)
                                                  ../../../libIPLAY/lib//libmpapi.a(mpImageApi.o)
                                                  ../../../libIPLAY/lib//libimage.a(IMG_jpeg.o)
                                                  ../../../libIPLAY/lib//libdisplay.a(hal_ipu.o)
                                                  ../../../libIPLAY/lib//libdisplay.a(imgWin.o)
                                                  ../../../libIPLAY/lib//libdisplay.a(idu.o)
                                                  ../../../libIPLAY/lib//libsystem.a(SetTabFunc.o)
                                                  ../../../libIPLAY/lib//libsystem.a(global612.o)
                                                  ../../../libIPLAY/lib//libperipheral.a(hal_mmcp.o)
                                                  ../../../libIPLAY/lib//libfile.a(Format.o)
                                                  ../../../libIPLAY/lib//libfile.a(file.o)
                                                  ../../../libIPLAY/lib//libMcard.a(SD.o)
                                                  ../../../libIPLAY/lib//libMcard.a(NandPhyAdv_Mp650.o)
                                                  ../../../libIPLAY/lib//libos.a(memory.o)
                                                  ../../../libIPLAY/lib//libos.a(message.o)
                                                  ../object/main.o
memmove                                           /cygdrive/e/mips/bin/../lib/gcc-lib/lexra-mpx-elf/3.2.1/../../../../lexra-mpx-elf/lib/soft-float/libc.a(memmove.o)
                                                  /cygdrive/e/mips/bin/../lib/gcc-lib/lexra-mpx-elf/3.2.1/../../../../lexra-mpx-elf/lib/soft-float/libc.a(fvwrite.o)
memset                                            /cygdrive/e/mips/bin/../lib/gcc-lib/lexra-mpx-elf/3.2.1/../../../../lexra-mpx-elf/lib/soft-float/libc.a(memset.o)
                                                  ../../../libIPLAY/lib//libimage.a(jpegEncode.o)
                                                  /cygdrive/e/mips/bin/../lib/gcc-lib/lexra-mpx-elf/3.2.1/../../../../lexra-mpx-elf/lib/soft-float/libc.a(callocr.o)
                                                  /cygdrive/e/mips/bin/../lib/gcc-lib/lexra-mpx-elf/3.2.1/../../../../lexra-mpx-elf/lib/soft-float/libc.a(findfp.o)
                                                  /cygdrive/e/mips/bin/../lib/gcc-lib/lexra-mpx-elf/3.2.1/../../../../lexra-mpx-elf/lib/soft-float/libc.a(vfprintf.o)
                                                  ../../../libIPLAY/lib//libxpg.a(xpgReader.o)
                                                  ../../../libIPLAY/lib//libxpg.a(xpgRole.o)
                                                  ../../../libIPLAY/lib//libxpg.a(xpgSprite.o)
                                                  ../../../libIPLAY/lib//libxpg.a(xpgUtil.o)
                                                  ../../../libIPLAY/lib//libxpg.a(xpgMovie.o)
                                                  ../../../libIPLAY/lib//libtouchctrl.a(tc_gt911.o)
                                                  ../../../libIPLAY/lib//libtouchctrl.a(touchCtrller.o)
                                                  ../../../libIPLAY/lib//libavipacker.a(AVI_Packer.o)
                                                  ../../../libIPLAY/lib//libavipacker.a(AVI_packerAPI.o)
                                                  ../../../libIPLAY/lib//libjpeg.a(jddctmgr.o)
                                                  ../../../libIPLAY/lib//libjpeg.a(jutils.o)
                                                  ../../../libIPLAY/lib//libjpeg.a(jdhuff.o)
                                                  ../../../libIPLAY/lib//libjpeg.a(jdcoefct.o)
                                                  ../../../libIPLAY/lib//libjpeg.a(jdmaster.o)
                                                  ../../../libIPLAY/lib//libjpeg.a(jdapimin.o)
                                                  ../../../libIPLAY/lib//libjpeg.a(jpeg_decoder.o)
                                                  ../../../libIPLAY/lib//libmpapi.a(mpStreamApi.o)
                                                  ../../../libIPLAY/lib//libmpapi.a(mpImageApi.o)
                                                  ../../../libIPLAY/lib//libimage.a(IMG_jpeg.o)
                                                  ../../../libIPLAY/lib//libimage.a(jpeg_hal.o)
                                                  ../../../libIPLAY/lib//libdisplay.a(scaler_650.o)
                                                  ../../../libIPLAY/lib//libdisplay.a(osd.o)
                                                  ../../../libIPLAY/lib//libsystem.a(SetTabFunc.o)
                                                  ../../../libIPLAY/lib//libsystem.a(global612.o)
                                                  ../../../libIPLAY/lib//libsystem.a(SystemMemory.o)
                                                  ../../../libIPLAY/lib//libsystem.a(SystemConfig.o)
                                                  ../../../libIPLAY/lib//libperipheral.a(hal_mmcp.o)
                                                  ../../../libIPLAY/lib//libfile.a(Format.o)
                                                  ../../../libIPLAY/lib//libfile.a(file.o)
                                                  ../../../libIPLAY/lib//libMcard.a(NandPhyAdv_Mp650.o)
                                                  ../../../libIPLAY/lib//libMcard.a(NandFTL.o)
                                                  ../../../libIPLAY/lib//libMcard.a(mcard.o)
                                                  ../../../libIPLAY/lib//libos.a(systimer.o)
                                                  ../../../libIPLAY/lib//libos.a(memory.o)
                                                  ../../../libIPLAY/lib//libos.a(task.o)
                                                  ../../../libIPLAY/lib//libos.a(cosmos.o)
                                                  ../object/ui_timer.o
mmcp_block                                        ../../../libIPLAY/lib//libperipheral.a(hal_mmcp.o)
mmcp_block_polling                                ../../../libIPLAY/lib//libperipheral.a(hal_mmcp.o)
                                                  ../../../libIPLAY/lib//libmpapi.a(mpImageApi.o)
mmcp_memcpy                                       ../../../libIPLAY/lib//libperipheral.a(hal_mmcp.o)
                                                  ../../../libIPLAY/lib//libxpg.a(xpgDraw.o)
                                                  ../../../libIPLAY/lib//libmpapi.a(mpImageApi.o)
                                                  ../../../libIPLAY/lib//libdisplay.a(imgWin.o)
                                                  ../../../libIPLAY/lib//libsystem.a(ISP_Nand.o)
                                                  ../../../libIPLAY/lib//libos.a(memory.o)
                                                  ../object/isp.o
mmcp_memcpy_polling                               ../../../libIPLAY/lib//libperipheral.a(hal_mmcp.o)
                                                  ../../../libIPLAY/lib//libavipacker.a(AVI_Stream.o)
                                                  ../../../libIPLAY/lib//libmpapi.a(mpStreamApi.o)
                                                  ../../../libIPLAY/lib//libMcard.a(NandFTL.o)
mmcp_memset                                       ../../../libIPLAY/lib//libperipheral.a(hal_mmcp.o)
                                                  ../../../libIPLAY/lib//libdisplay.a(scaler_650.o)
mmcp_memset_u32                                   ../../../libIPLAY/lib//libperipheral.a(hal_mmcp.o)
                                                  ../../../libIPLAY/lib//libdisplay.a(imgWin.o)
mpCheckBufferContent                              ../../../libIPLAY/lib//libmpapi.a(mpImageApi.o)
mpClearWin                                        ../../../libIPLAY/lib//libmpapi.a(mpImageApi.o)
                                                  ../../../libIPLAY/lib//libxpg.a(xpgDraw.o)
                                                  ../object/imageplayer.o
                                                  ../object/xpgFunc.o
                                                  ../object/main.o
mpCopyEqualWin                                    ../../../libIPLAY/lib//libmpapi.a(mpImageApi.o)
                                                  ../object/xpgFunc.o
mpCopyWin                                         ../../../libIPLAY/lib//libmpapi.a(mpImageApi.o)
                                                  ../../../libIPLAY/lib//libxpg.a(xpgDraw.o)
mpCopyWinArea                                     ../../../libIPLAY/lib//libmpapi.a(mpImageApi.o)
mpCopyWinAreaSameSize                             ../../../libIPLAY/lib//libmpapi.a(mpImageApi.o)
mpDebugPrint                                      ../../../libIPLAY/lib//libmpapi.a(mpTrace.o)
                                                  ../../../libIPLAY/lib//libimage.a(jpegEncode.o)
                                                  ../../../libIPLAY/lib//libbios.a(MP650_uart.o)
                                                  ../../../libIPLAY/lib//libxpg.a(xpgDraw.o)
                                                  ../../../libIPLAY/lib//libxpg.a(xpgReader.o)
                                                  ../../../libIPLAY/lib//libxpg.a(xpgRole.o)
                                                  ../../../libIPLAY/lib//libxpg.a(xpgUtil.o)
                                                  ../../../libIPLAY/lib//libxpg.a(xpg.o)
                                                  ../../../libIPLAY/lib//libtouchctrl.a(tc_gt911.o)
                                                  ../../../libIPLAY/lib//libtouchctrl.a(touchCtrller.o)
                                                  ../../../libIPLAY/lib//libRecord.a(record_task.o)
                                                  ../../../libIPLAY/lib//libutil.a(util_CharString.o)
                                                  ../../../libIPLAY/lib//libavipacker.a(AVI_Utility.o)
                                                  ../../../libIPLAY/lib//libavipacker.a(AVI_packerAPI.o)
                                                  ../../../libIPLAY/lib//libavipacker.a(AVI_Stream.o)
                                                  ../../../libIPLAY/lib//libmpapi.a(mpStreamApi.o)
                                                  ../../../libIPLAY/lib//libmpapi.a(mpImageFileApi.o)
                                                  ../../../libIPLAY/lib//libmpapi.a(mpUtil.o)
                                                  ../../../libIPLAY/lib//libmpapi.a(api_main.o)
                                                  ../../../libIPLAY/lib//libimage.a(IMG_jpeg.o)
                                                  ../../../libIPLAY/lib//libimage.a(jpeg_hal.o)
                                                  ../../../libIPLAY/lib//libsensor.a(sensor_NT99140.o)
                                                  ../../../libIPLAY/lib//libsensor.a(sensor_driver_NT99140.o)
                                                  ../../../libIPLAY/lib//libsensor.a(sensor_manager.o)
                                                  ../../../libIPLAY/lib//libdisplay.a(scaler_650.o)
                                                  ../../../libIPLAY/lib//libdisplay.a(imgWin.o)
                                                  ../../../libIPLAY/lib//libdisplay.a(osd4.o)
                                                  ../../../libIPLAY/lib//libdisplay.a(osd.o)
                                                  ../../../libIPLAY/lib//libdisplay.a(idu.o)
                                                  ../../lib//libui.a(uiTouchCtrller.o)
                                                  ../../../libIPLAY/lib//libsystem.a(SetTabFunc.o)
                                                  ../../../libIPLAY/lib//libsystem.a(McardDevInfo.o)
                                                  ../../../libIPLAY/lib//libsystem.a(ISP_Nand.o)
                                                  ../../../libIPLAY/lib//libsystem.a(global612.o)
                                                  ../../../libIPLAY/lib//libsystem.a(SystemDrive.o)
                                                  ../../../libIPLAY/lib//libsystem.a(SystemMemory.o)
                                                  ../../../libIPLAY/lib//libsystem.a(SystemConfig.o)
                                                  ../../../libIPLAY/lib//libperipheral.a(hal_rtc.o)
                                                  ../../../libIPLAY/lib//libperipheral.a(hal_mmcp.o)
                                                  ../../../libIPLAY/lib//libperipheral.a(hal_gpio.o)
                                                  ../../../libIPLAY/lib//libfile.a(filebrowser.o)
                                                  ../../../libIPLAY/lib//libfile.a(Format.o)
                                                  ../../../libIPLAY/lib//libfile.a(file.o)
                                                  ../../../libIPLAY/lib//libfile.a(drive.o)
                                                  ../../../libIPLAY/lib//libfile.a(chain.o)
                                                  ../../../libIPLAY/lib//libfile.a(dir.o)
                                                  ../../../libIPLAY/lib//libMcard.a(Uti.o)
                                                  ../../../libIPLAY/lib//libMcard.a(SdPhy_Mp650.o)
                                                  ../../../libIPLAY/lib//libMcard.a(SD.o)
                                                  ../../../libIPLAY/lib//libMcard.a(NandPhyAdv_Mp650.o)
                                                  ../../../libIPLAY/lib//libMcard.a(NandFTL.o)
                                                  ../../../libIPLAY/lib//libMcard.a(mcard.o)
                                                  ../../../libIPLAY/lib//libos.a(interrupt.o)
                                                  ../../../libIPLAY/lib//libos.a(systimer.o)
                                                  ../../../libIPLAY/lib//libos.a(memory.o)
                                                  ../../../libIPLAY/lib//libos.a(message.o)
                                                  ../../../libIPLAY/lib//libos.a(event.o)
                                                  ../../../libIPLAY/lib//libos.a(object.o)
                                                  ../../../libIPLAY/lib//libos.a(task.o)
                                                  ../../../libIPLAY/lib//libos.a(cosmos.o)
                                                  ../../../libIPLAY/lib//libbios.a(hal_Ckg.o)
                                                  ../../../libIPLAY/lib//libbios.a(agent.o)
                                                  ../object/xpgPhotoFunc.o
                                                  ../object/xpgProcSensorData.o
                                                  ../object/UI_FileSystem.o
                                                  ../object/camcorder_func.o
                                                  ../object/xpgBrowser.o
                                                  ../object/xpgDrawSprite.o
                                                  ../object/xpgDriveFunc.o
                                                  ../object/isp.o
                                                  ../object/Setup.o
                                                  ../object/imageplayer.o
                                                  ../object/xpgFunc.o
                                                  ../object/ui_timer.o
                                                  ../object/main.o
mpDebugPrintChar                                  ../../../libIPLAY/lib//libmpapi.a(mpTrace.o)
                                                  ../../../libIPLAY/lib//libavipacker.a(AVI_packerAPI.o)
                                                  ../../../libIPLAY/lib//libavipacker.a(AVI_Stream.o)
mpDebugPrintCharDrop                              ../../../libIPLAY/lib//libmpapi.a(mpTrace.o)
mpDebugPrintN                                     ../../../libIPLAY/lib//libmpapi.a(mpTrace.o)
                                                  ../../../libIPLAY/lib//libsystem.a(ISP_Nand.o)
                                                  ../object/xpgProcSensorData.o
mpDebugPrintValue                                 ../../../libIPLAY/lib//libmpapi.a(mpTrace.o)
mpDraw1BitBitmap                                  ../../../libIPLAY/lib//libmpapi.a(mpImageApi.o)
mpGetIPUEffectValue                               ../../../libIPLAY/lib//libmpapi.a(mpImageApi.o)
                                                  ../../../libIPLAY/lib//libdisplay.a(scaler_650.o)
mpPaintWin                                        ../../../libIPLAY/lib//libmpapi.a(mpImageApi.o)
                                                  ../../../libIPLAY/lib//libmpapi.a(mpTrace.o)
                                                  ../object/main.o
mpPaintWinArea                                    ../../../libIPLAY/lib//libmpapi.a(mpImageApi.o)
                                                  ../object/xpgDrawSprite.o
mpPaintWinAreaAntiBlending                        ../../../libIPLAY/lib//libmpapi.a(mpImageApi.o)
mpPaintWinAreaBlending                            ../../../libIPLAY/lib//libmpapi.a(mpImageApi.o)
mpPrintMessage                                    ../../../libIPLAY/lib//libmpapi.a(mpTrace.o)
                                                  ../object/isp.o
                                                  ../object/main.o
mpPrintTraceTime                                  ../../../libIPLAY/lib//libmpapi.a(mpTrace.o)
mpResetIPUEffectValue                             ../../../libIPLAY/lib//libmpapi.a(mpImageApi.o)
mpSE_Crayon                                       ../../../libIPLAY/lib//libmpapi.a(mpImageApi.o)
mpSE_Edge                                         ../../../libIPLAY/lib//libmpapi.a(mpImageApi.o)
mpSE_Gray                                         ../../../libIPLAY/lib//libmpapi.a(mpImageApi.o)
mpSE_Negative                                     ../../../libIPLAY/lib//libmpapi.a(mpImageApi.o)
mpSE_Off                                          ../../../libIPLAY/lib//libmpapi.a(mpImageApi.o)
mpSE_RGB_stretch                                  ../../../libIPLAY/lib//libmpapi.a(mpImageApi.o)
mpSE_Sepia                                        ../../../libIPLAY/lib//libmpapi.a(mpImageApi.o)
mpSE_Sketch                                       ../../../libIPLAY/lib//libmpapi.a(mpImageApi.o)
mpSE_Solarzation                                  ../../../libIPLAY/lib//libmpapi.a(mpImageApi.o)
mpSetIPUEffectValue                               ../../../libIPLAY/lib//libmpapi.a(mpImageApi.o)
mpTraceTimeStart                                  ../../../libIPLAY/lib//libmpapi.a(mpTrace.o)
mpWinInit                                         ../../../libIPLAY/lib//libmpapi.a(mpImageApi.o)
                                                  ../../../libIPLAY/lib//libsensor.a(sensor_NT99140.o)
                                                  ../object/xpgFunc.o
mp_ctype                                          ../../../libIPLAY/lib//libbios.a(string.o)
mp_sprintf                                        ../../../libIPLAY/lib//libbios.a(string.o)
                                                  ../../../libIPLAY/lib//libfile.a(file.o)
                                                  ../../../libIPLAY/lib//libfile.a(dir.o)
                                                  ../../../libIPLAY/lib//libbios.a(agent.o)
                                                  ../object/UI_FileSystem.o
mp_sscanf                                         ../../../libIPLAY/lib//libbios.a(string.o)
mp_strcmp                                         ../../../libIPLAY/lib//libbios.a(string.o)
mp_strlen                                         ../../../libIPLAY/lib//libbios.a(string.o)
mp_vsprintf                                       ../../../libIPLAY/lib//libbios.a(string.o)
                                                  ../../../libIPLAY/lib//libbios.a(agent.o)
mp_vsscanf                                        ../../../libIPLAY/lib//libbios.a(string.o)
mpxStreamClose                                    ../../../libIPLAY/lib//libmpapi.a(mpStreamApi.o)
                                                  ../../../libIPLAY/lib//libmpapi.a(mpImageFileApi.o)
                                                  ../../../libIPLAY/lib//libimage.a(jpeg_hal.o)
mpxStreamDirectRead                               ../../../libIPLAY/lib//libmpapi.a(mpStreamApi.o)
mpxStreamFillCache                                ../../../libIPLAY/lib//libmpapi.a(mpStreamApi.o)
                                                  ../../../libIPLAY/lib//libimage.a(IMG_jpeg.o)
mpxStreamGetSize                                  ../../../libIPLAY/lib//libmpapi.a(mpStreamApi.o)
                                                  ../../../libIPLAY/lib//libimage.a(jpeg_hal.o)
mpxStreamGetc                                     ../../../libIPLAY/lib//libmpapi.a(mpStreamApi.o)
                                                  ../../../libIPLAY/lib//libmpapi.a(mpImageFileApi.o)
                                                  ../../../libIPLAY/lib//libimage.a(jpeg_hal.o)
mpxStreamOpen                                     ../../../libIPLAY/lib//libmpapi.a(mpStreamApi.o)
                                                  ../../../libIPLAY/lib//libmpapi.a(mpImageFileApi.o)
mpxStreamOpenBuffer                               ../../../libIPLAY/lib//libmpapi.a(mpStreamApi.o)
                                                  ../../../libIPLAY/lib//libmpapi.a(mpImageFileApi.o)
                                                  ../../../libIPLAY/lib//libimage.a(jpeg_hal.o)
mpxStreamPrintOut                                 ../../../libIPLAY/lib//libmpapi.a(mpStreamApi.o)
mpxStreamRead                                     ../../../libIPLAY/lib//libmpapi.a(mpStreamApi.o)
                                                  ../../../libIPLAY/lib//libjpeg.a(jdatasrc.o)
                                                  ../../../libIPLAY/lib//libimage.a(jpeg_hal.o)
mpxStreamReadAndSkipLength                        ../../../libIPLAY/lib//libmpapi.a(mpStreamApi.o)
                                                  ../../../libIPLAY/lib//libimage.a(jpeg_hal.o)
mpxStreamReadDWord                                ../../../libIPLAY/lib//libmpapi.a(mpStreamApi.o)
mpxStreamReadDWord_le                             ../../../libIPLAY/lib//libmpapi.a(mpStreamApi.o)
mpxStreamReadWord                                 ../../../libIPLAY/lib//libmpapi.a(mpStreamApi.o)
                                                  ../../../libIPLAY/lib//libmpapi.a(mpImageFileApi.o)
                                                  ../../../libIPLAY/lib//libimage.a(IMG_jpeg.o)
                                                  ../../../libIPLAY/lib//libimage.a(jpeg_hal.o)
mpxStreamReadWord_le                              ../../../libIPLAY/lib//libmpapi.a(mpStreamApi.o)
mpxStreamReset                                    ../../../libIPLAY/lib//libmpapi.a(mpStreamApi.o)
mpxStreamSearchMarker                             ../../../libIPLAY/lib//libmpapi.a(mpStreamApi.o)
                                                  ../../../libIPLAY/lib//libmpapi.a(mpImageFileApi.o)
                                                  ../../../libIPLAY/lib//libimage.a(jpeg_hal.o)
mpxStreamSearchString                             ../../../libIPLAY/lib//libmpapi.a(mpStreamApi.o)
mpxStreamSeek                                     ../../../libIPLAY/lib//libmpapi.a(mpStreamApi.o)
                                                  ../../../libIPLAY/lib//libjpeg.a(jdatasrc.o)
                                                  ../../../libIPLAY/lib//libmpapi.a(mpImageFileApi.o)
                                                  ../../../libIPLAY/lib//libimage.a(IMG_jpeg.o)
                                                  ../../../libIPLAY/lib//libimage.a(jpeg_hal.o)
mpxStreamSkip                                     ../../../libIPLAY/lib//libmpapi.a(mpStreamApi.o)
                                                  ../../../libIPLAY/lib//libmpapi.a(mpImageFileApi.o)
                                                  ../../../libIPLAY/lib//libimage.a(jpeg_hal.o)
mpxStreamTell                                     ../../../libIPLAY/lib//libmpapi.a(mpStreamApi.o)
                                                  ../../../libIPLAY/lib//libjpeg.a(jdatasrc.o)
                                                  ../../../libIPLAY/lib//libmpapi.a(mpImageFileApi.o)
                                                  ../../../libIPLAY/lib//libimage.a(IMG_jpeg.o)
                                                  ../../../libIPLAY/lib//libimage.a(jpeg_hal.o)
mpx_TcFunctionsAdjust                             ../../../libIPLAY/lib//libtouchctrl.a(tcapi.o)
                                                  ../../lib//libui.a(uiTouchCtrller.o)
mpx_TcFunctionsAdjustWait                         ../../../libIPLAY/lib//libtouchctrl.a(tcapi.o)
                                                  ../../lib//libui.a(uiTouchCtrller.o)
mpx_TcFunctionsChgSensitivity                     ../../../libIPLAY/lib//libtouchctrl.a(tcapi.o)
mpx_TcFunctionsPause                              ../../../libIPLAY/lib//libtouchctrl.a(tcapi.o)
mpx_TcFunctionsPollSet                            ../../../libIPLAY/lib//libtouchctrl.a(tcapi.o)
mpx_TcFunctionsPosGet                             ../../../libIPLAY/lib//libtouchctrl.a(tcapi.o)
mpx_TcFunctionsPosReset                           ../../../libIPLAY/lib//libtouchctrl.a(tcapi.o)
mpx_TcFunctionsResume                             ../../../libIPLAY/lib//libtouchctrl.a(tcapi.o)
mpx_TcFunctionsStartup                            ../../../libIPLAY/lib//libtouchctrl.a(tcapi.o)
                                                  ../../lib//libui.a(uiTouchCtrller.o)
mpx_TcFunctionsStop                               ../../../libIPLAY/lib//libtouchctrl.a(tcapi.o)
mpx_TcFunctionsTest                               ../../../libIPLAY/lib//libtouchctrl.a(tcapi.o)
mpx_Utf8ToUnicode                                 ../../../libIPLAY/lib//libutil.a(util_Utf8ToUni.o)
mpx_UtilAsc2Uni                                   ../../../libIPLAY/lib//libutil.a(util_Asc2Uni.o)
                                                  ../object/UI_FileSystem.o
mpx_UtilU16ToU08                                  ../../../libIPLAY/lib//libutil.a(util_U16ToU08.o)
                                                  ../../../libIPLAY/lib//libfile.a(filebrowser.o)
                                                  ../../../libIPLAY/lib//libfile.a(file.o)
                                                  ../../../libIPLAY/lib//libfile.a(dir.o)
mpx_UtilUtf8ToUnicodeU16                          ../../../libIPLAY/lib//libutil.a(util_Utf8ToUni.o)
                                                  ../../../libIPLAY/lib//libfile.a(file.o)
                                                  ../../../libIPLAY/lib//libfile.a(dir.o)
no_movie                                          ../../../libIPLAY/lib//libRecord.a(record_task.o)
now                                               ../../../libIPLAY/lib//libRecord.a(record_task.o)
off_1                                             ../../../libIPLAY/lib//libavipacker.a(AVI_packerAPI.o)
ok                                                ../../../libIPLAY/lib//libRecord.a(record_task.o)
outName                                           ../../../libIPLAY/lib//libavipacker.a(AVI_packerAPI.o)
overlay_enable                                    ../../../libIPLAY/lib//libsensor.a(sensor_manager.o)
                                                  ../../../libIPLAY/lib//libdisplay.a(scaler_650.o)
pbSensorWinBuffer                                 ../../../libIPLAY/lib//libsensor.a(sensor_manager.o)
                                                  ../../../libIPLAY/lib//libsensor.a(sensor_NT99140.o)
                                                  ../object/xpgProcSensorData.o
pcm_size_1                                        ../../../libIPLAY/lib//libavipacker.a(AVI_packerAPI.o)
picDecodeNumber1                                  ../../../libIPLAY/lib//libRecord.a(record_task.o)
pool_free_task_mem                                ../../../libIPLAY/lib//libos.a(memory.o)
pool_mem_free                                     ../../../libIPLAY/lib//libos.a(memory.o)
process_restart                                   ../../../libIPLAY/lib//libjpeg.a(jdphuff.o)
                                                  ../../../libIPLAY/lib//libjpeg.a(asm_jdphuff.o)
psCurrWin                                         ../../../libIPLAY/lib//libdisplay.a(imgWin.o)
                                                  ../../../libIPLAY/lib//libdisplay.a(idu.o)
psMcardDev                                        ../../../libIPLAY/lib//libMcard.a(mcard.o)
psNextWin                                         ../../../libIPLAY/lib//libdisplay.a(imgWin.o)
                                                  ../../../libIPLAY/lib//libdisplay.a(idu.o)
putPacket                                         ../../../libIPLAY/lib//libbios.a(agent.o)
read                                              ../../../libIPLAY/lib//libdemux.a(board.o)
                                                  /cygdrive/e/mips/bin/../lib/gcc-lib/lexra-mpx-elf/3.2.1/../../../../lexra-mpx-elf/lib/soft-float/libc.a(readr.o)
readByte                                          ../../../libIPLAY/lib//libbios.a(agent.o)
readChar                                          ../../../libIPLAY/lib//libbios.a(agent.o)
readNibble                                        ../../../libIPLAY/lib//libbios.a(agent.o)
readVariable                                      ../../../libIPLAY/lib//libbios.a(agent.o)
readWord                                          ../../../libIPLAY/lib//libbios.a(agent.o)
readWordBinary                                    ../../../libIPLAY/lib//libbios.a(agent.o)
rec_argument                                      ../../../libIPLAY/lib//libRecord.a(record_task.o)
                                                  ../../../libIPLAY/lib//libavipacker.a(AVI_packerAPI.o)
recopcontrolInit                                  ../../../libIPLAY/lib//libRecord.a(record_task.o)
                                                  ../object/main.o
recordTaskInit                                    ../../../libIPLAY/lib//libRecord.a(record_task.o)
recordTaskState                                   ../../../libIPLAY/lib//libRecord.a(record_task.o)
record_op_control                                 ../../../libIPLAY/lib//libRecord.a(record_task.o)
record_panel_task                                 ../../../libIPLAY/lib//libRecord.a(record_task.o)
record_time                                       ../../../libIPLAY/lib//libRecord.a(record_task.o)
replyForLocalBreak                                ../../../libIPLAY/lib//libbios.a(agent.o)
sWin                                              ../../../libIPLAY/lib//libdisplay.a(imgWin.o)
                                                  ../../../libIPLAY/lib//libdisplay.a(idu.o)
sbrk                                              ../../../libIPLAY/lib//libdemux.a(board.o)
                                                  /cygdrive/e/mips/bin/../lib/gcc-lib/lexra-mpx-elf/3.2.1/../../../../lexra-mpx-elf/lib/soft-float/libc.a(sbrkr.o)
sce                                               ../../../libIPLAY/lib//libdisplay.a(scaler_650.o)
sce1                                              ../../../libIPLAY/lib//libRecord.a(record_task.o)
sdbuf_left                                        ../../../libIPLAY/lib//libjpeg.a(jdatasrc.o)
                                                  ../../../libIPLAY/lib//libjpeg.a(jpeg_decoder.o)
sensor_IMGSIZE_ID                                 ../../../libIPLAY/lib//libsensor.a(sensor_manager.o)
                                                  ../../../libIPLAY/lib//libsensor.a(sensor_NT99140.o)
                                                  ../../../libIPLAY/lib//libsensor.a(sensor_driver_NT99140.o)
sensor_mode                                       ../../../libIPLAY/lib//libsensor.a(sensor_manager.o)
                                                  ../../../libIPLAY/lib//libsensor.a(sensor_NT99140.o)
sensor_nt99140_GPIO_Init                          ../../../libIPLAY/lib//libsensor.a(sensor_driver_NT99140.o)
setjmp                                            /cygdrive/e/mips/bin/../lib/gcc-lib/lexra-mpx-elf/3.2.1/../../../../lexra-mpx-elf/lib/soft-float/libc.a(setjmp.o)
                                                  ../../../libIPLAY/lib//libjpeg.a(jpeg_decoder.o)
setlocale                                         /cygdrive/e/mips/bin/../lib/gcc-lib/lexra-mpx-elf/3.2.1/../../../../lexra-mpx-elf/lib/soft-float/libc.a(locale.o)
simple_mp_strtol                                  ../../../libIPLAY/lib//libbios.a(string.o)
simple_mp_strtoll                                 ../../../libIPLAY/lib//libbios.a(string.o)
simple_mp_strtoul                                 ../../../libIPLAY/lib//libbios.a(string.o)
simple_mp_strtoull                                ../../../libIPLAY/lib//libbios.a(string.o)
singleStep                                        ../../../libIPLAY/lib//libbios.a(agent.o)
sprintf                                           /cygdrive/e/mips/bin/../lib/gcc-lib/lexra-mpx-elf/3.2.1/../../../../lexra-mpx-elf/lib/soft-float/libc.a(sprintf.o)
                                                  ../../../libIPLAY/lib//libbios.a(MP650_uart.o)
                                                  ../../../libIPLAY/lib//libtouchctrl.a(tc_gt911.o)
                                                  ../../../libIPLAY/lib//libsensor.a(sensor_driver_NT99140.o)
                                                  ../object/xpgDrawSprite.o
                                                  ../object/isp.o
src                                               ../../../libIPLAY/lib//libdisplay.a(ipu.o)
stNoteChain                                       ../../../libIPLAY/lib//libimage.a(jpegEncode.o)
stXpgMovieStream                                  ../../../libIPLAY/lib//libxpg.a(xpgUtil.o)
st_AFLastWidth                                    ../object/xpgProcSensorData.o
st_AFMinWidth                                     ../object/xpgProcSensorData.o
st_aviStmCache                                    ../../../libIPLAY/lib//libavipacker.a(AVI_Stream.o)
st_bAFFirsetTry                                   ../object/xpgProcSensorData.o
st_bAFMotoIndex                                   ../object/xpgProcSensorData.o
st_bAFReturnTimes                                 ../object/xpgProcSensorData.o
st_dwAFbrightChg                                  ../object/xpgProcSensorData.o
st_swAFStep                                       ../object/xpgProcSensorData.o
st_wAFStartX                                      ../object/xpgProcSensorData.o
st_wAFStartY                                      ../object/xpgProcSensorData.o
st_wWhiteWidth                                    ../object/xpgProcSensorData.o
startPage                                         ../../../libIPLAY/lib//libxpg.a(xpgReader.o)
start_1                                           ../../../libIPLAY/lib//libavipacker.a(AVI_packerAPI.o)
strcat                                            /cygdrive/e/mips/bin/../lib/gcc-lib/lexra-mpx-elf/3.2.1/../../../../lexra-mpx-elf/lib/soft-float/libc.a(strcat.o)
                                                  ../../../libIPLAY/lib//libfile.a(file.o)
strchr                                            /cygdrive/e/mips/bin/../lib/gcc-lib/lexra-mpx-elf/3.2.1/../../../../lexra-mpx-elf/lib/soft-float/libc.a(strchr.o)
                                                  ../../../libIPLAY/lib//libfile.a(file.o)
                                                  ../../../libIPLAY/lib//libfile.a(dir.o)
strcmp                                            /cygdrive/e/mips/bin/../lib/gcc-lib/lexra-mpx-elf/3.2.1/../../../../lexra-mpx-elf/lib/soft-float/libc.a(strcmp.o)
                                                  /cygdrive/e/mips/bin/../lib/gcc-lib/lexra-mpx-elf/3.2.1/../../../../lexra-mpx-elf/lib/soft-float/libc.a(locale.o)
strcpy                                            /cygdrive/e/mips/bin/../lib/gcc-lib/lexra-mpx-elf/3.2.1/../../../../lexra-mpx-elf/lib/soft-float/libc.a(strcpy.o)
                                                  /cygdrive/e/mips/bin/../lib/gcc-lib/lexra-mpx-elf/3.2.1/../../../../lexra-mpx-elf/lib/soft-float/libc.a(strcat.o)
                                                  ../../../libIPLAY/lib//libfile.a(file.o)
strl_audio_setting                                ../../../libIPLAY/lib//libavipacker.a(AVI_Utility.o)
                                                  ../../../libIPLAY/lib//libavipacker.a(AVI_Packer.o)
strlen                                            /cygdrive/e/mips/bin/../lib/gcc-lib/lexra-mpx-elf/3.2.1/../../../../lexra-mpx-elf/lib/soft-float/libc.a(strlen.o)
                                                  /cygdrive/e/mips/bin/../lib/gcc-lib/lexra-mpx-elf/3.2.1/../../../../lexra-mpx-elf/lib/soft-float/libc.a(vfprintf.o)
                                                  ../../../libIPLAY/lib//libxpg.a(xpgUtil.o)
                                                  ../../../libIPLAY/lib//libxpg.a(xpgMovie.o)
                                                  ../../../libIPLAY/lib//libxpg.a(xpg.o)
                                                  ../../../libIPLAY/lib//libsystem.a(SetTabFunc.o)
swap_buffer_endian                                ../../../libIPLAY/lib//libmpapi.a(mpStreamApi.o)
test285flag                                       ../../../libIPLAY/lib//libjpeg.a(jerror.o)
                                                  ../../../libIPLAY/lib//libjpeg.a(jidctfst.o)
                                                  ../../../libIPLAY/lib//libjpeg.a(jidctred.o)
                                                  ../../../libIPLAY/lib//libjpeg.a(jmemnobs.o)
                                                  ../../../libIPLAY/lib//libjpeg.a(jdsample.o)
                                                  ../../../libIPLAY/lib//libjpeg.a(jdcolor.o)
                                                  ../../../libIPLAY/lib//libjpeg.a(jdmainct.o)
                                                  ../../../libIPLAY/lib//libjpeg.a(jddctmgr.o)
                                                  ../../../libIPLAY/lib//libjpeg.a(jdpostct.o)
                                                  ../../../libIPLAY/lib//libjpeg.a(jutils.o)
                                                  ../../../libIPLAY/lib//libjpeg.a(jdhuff.o)
                                                  ../../../libIPLAY/lib//libjpeg.a(jdcoefct.o)
                                                  ../../../libIPLAY/lib//libjpeg.a(jdphuff.o)
                                                  ../../../libIPLAY/lib//libjpeg.a(jcomapi.o)
                                                  ../../../libIPLAY/lib//libjpeg.a(jdinput.o)
                                                  ../../../libIPLAY/lib//libjpeg.a(jdmarker.o)
                                                  ../../../libIPLAY/lib//libjpeg.a(jmemmgr.o)
                                                  ../../../libIPLAY/lib//libjpeg.a(jdmaster.o)
                                                  ../../../libIPLAY/lib//libjpeg.a(jdatasrc.o)
                                                  ../../../libIPLAY/lib//libjpeg.a(jdapimin.o)
                                                  ../../../libIPLAY/lib//libjpeg.a(jdapistd.o)
                                                  ../../../libIPLAY/lib//libjpeg.a(jpeg_decoder.o)
times                                             ../../../libIPLAY/lib//libdemux.a(board.o)
touchSpriteFunctions                              ../../lib//libui.a(uiTouchCtrller.o)
touchSprite_Aside                                 ../../lib//libui.a(uiTouchCtrller.o)
touchSprite_BackIcon                              ../../lib//libui.a(uiTouchCtrller.o)
touchSprite_Background                            ../../lib//libui.a(uiTouchCtrller.o)
touchSprite_CloseIcon                             ../../lib//libui.a(uiTouchCtrller.o)
touchSprite_DarkIcon                              ../../lib//libui.a(uiTouchCtrller.o)
touchSprite_Dialog                                ../../lib//libui.a(uiTouchCtrller.o)
touchSprite_Icon                                  ../../lib//libui.a(uiTouchCtrller.o)
touchSprite_LightIcon                             ../../lib//libui.a(uiTouchCtrller.o)
touchSprite_List                                  ../../lib//libui.a(uiTouchCtrller.o)
touchSprite_Mask                                  ../../lib//libui.a(uiTouchCtrller.o)
touchSprite_Selector                              ../../lib//libui.a(uiTouchCtrller.o)
touchSprite_Text                                  ../../lib//libui.a(uiTouchCtrller.o)
touchSprite_Title                                 ../../lib//libui.a(uiTouchCtrller.o)
toupper                                           /cygdrive/e/mips/bin/../lib/gcc-lib/lexra-mpx-elf/3.2.1/../../../../lexra-mpx-elf/lib/soft-float/libc.a(toupper.o)
                                                  ../../../libIPLAY/lib//libfile.a(file.o)
trg                                               ../../../libIPLAY/lib//libdisplay.a(ipu.o)
uartIntCauseCleanPattern                          ../../../libIPLAY/lib//libbios.a(agent.o)
                                                  ../../../libIPLAY/lib//libbios.a(exception.o)
uartIntMaskPattern                                ../../../libIPLAY/lib//libbios.a(agent.o)
                                                  ../../../libIPLAY/lib//libbios.a(exception.o)
uiDispatchTouchSprite                             ../../lib//libui.a(uiTouchCtrller.o)
uiTouchCtrllerCallback                            ../../lib//libui.a(uiTouchCtrller.o)
uiTouchMsgReceiver                                ../../lib//libui.a(uiTouchCtrller.o)
                                                  ../object/main.o
unlock_semaph                                     ../../../libIPLAY/lib//libavipacker.a(AVI_packerAPI.o)
vfprintf                                          /cygdrive/e/mips/bin/../lib/gcc-lib/lexra-mpx-elf/3.2.1/../../../../lexra-mpx-elf/lib/soft-float/libc.a(vfprintf.o)
                                                  /cygdrive/e/mips/bin/../lib/gcc-lib/lexra-mpx-elf/3.2.1/../../../../lexra-mpx-elf/lib/soft-float/libc.a(vsnprintf.o)
                                                  /cygdrive/e/mips/bin/../lib/gcc-lib/lexra-mpx-elf/3.2.1/../../../../lexra-mpx-elf/lib/soft-float/libc.a(sprintf.o)
video_INDEXENTRY_init                             ../../../libIPLAY/lib//libavipacker.a(AVI_Utility.o)
vsnprintf                                         /cygdrive/e/mips/bin/../lib/gcc-lib/lexra-mpx-elf/3.2.1/../../../../lexra-mpx-elf/lib/soft-float/libc.a(vsnprintf.o)
                                                  ../../../libIPLAY/lib//libmpapi.a(mpTrace.o)
wEndianConvert                                    ../../../libIPLAY/lib//libavipacker.a(AVI_Utility.o)
wFourccHeader                                     ../../../libIPLAY/lib//libavipacker.a(AVI_Utility.o)
                                                  ../../../libIPLAY/lib//libavipacker.a(AVI_Packer.o)
                                                  ../../../libIPLAY/lib//libavipacker.a(AVI_packerAPI.o)
wFourccHeader_index                               ../../../libIPLAY/lib//libavipacker.a(AVI_Utility.o)
                                                  ../../../libIPLAY/lib//libavipacker.a(AVI_packerAPI.o)
wLISTHeader                                       ../../../libIPLAY/lib//libavipacker.a(AVI_Utility.o)
                                                  ../../../libIPLAY/lib//libavipacker.a(AVI_Packer.o)
                                                  ../../../libIPLAY/lib//libavipacker.a(AVI_packerAPI.o)
waBasePatchTable                                  ../../../libIPLAY/lib//libimage.a(jpeg_hal.o)
waBaseTable                                       ../../../libIPLAY/lib//libimage.a(jpeg_hal.o)
wavformatex                                       ../../../libIPLAY/lib//libavipacker.a(AVI_Utility.o)
                                                  ../../../libIPLAY/lib//libavipacker.a(AVI_Packer.o)
                                                  ../../../libIPLAY/lib//libavipacker.a(AVI_packerAPI.o)
write                                             ../../../libIPLAY/lib//libdemux.a(board.o)
                                                  /cygdrive/e/mips/bin/../lib/gcc-lib/lexra-mpx-elf/3.2.1/../../../../lexra-mpx-elf/lib/soft-float/libc.a(writer.o)
writeByte                                         ../../../libIPLAY/lib//libbios.a(agent.o)
writeChar                                         ../../../libIPLAY/lib//libbios.a(agent.o)
writeCharByte                                     ../../../libIPLAY/lib//libbios.a(agent.o)
writeCharWord                                     ../../../libIPLAY/lib//libbios.a(agent.o)
writeString                                       ../../../libIPLAY/lib//libbios.a(agent.o)
writeWord                                         ../../../libIPLAY/lib//libbios.a(agent.o)
write_onepicture                                  ../../../libIPLAY/lib//libavipacker.a(AVI_Stream.o)
xpgActionFunctions                                ../../../libIPLAY/lib//libxpg.a(xpgUi.o)
xpgAllocDecodeBuffer                              ../../../libIPLAY/lib//libxpg.a(xpgDraw.o)
xpgCalloc                                         ../../../libIPLAY/lib//libxpg.a(xpgUtil.o)
                                                  ../../../libIPLAY/lib//libxpg.a(xpgReader.o)
                                                  ../../../libIPLAY/lib//libxpg.a(xpgSprite.o)
xpgCb_CaptureWinToFile                            ../object/xpgFunc.o
xpgCb_EnterCamcoderPreview                        ../object/xpgFunc.o
xpgCb_EnterPhotoMenu                              ../object/xpgBrowser.o
xpgCb_EnterPhotoViewPage                          ../object/xpgFunc.o
xpgCb_EnterSetupPage                              ../object/xpgFunc.o
xpgCb_NextCard                                    ../object/xpgDriveFunc.o
                                                  ../object/main.o
xpgCb_NullFunc                                    ../object/xpgFunc.o
xpgCb_OpenFolder                                  ../object/xpgBrowser.o
xpgCb_PressDownKey                                ../object/xpgFunc.o
xpgCb_PressEnterKey                               ../object/xpgFunc.o
xpgCb_PressExitKey                                ../object/xpgFunc.o
xpgCb_PressLeftKey                                ../object/xpgFunc.o
xpgCb_PressRightKey                               ../object/xpgFunc.o
xpgCb_PressUpKey                                  ../object/xpgFunc.o
xpgChangeDrive                                    ../object/xpgDriveFunc.o
                                                  ../object/xpgPhotoFunc.o
                                                  ../object/main.o
xpgChangeMenuMode                                 ../object/xpgBrowser.o
                                                  ../object/xpgFunc.o
xpgCheckDriveCount                                ../object/xpgDriveFunc.o
xpgClearCatch                                     ../object/xpgBrowser.o
                                                  ../object/xpgDriveFunc.o
                                                  ../object/main.o
xpgDelay                                          ../object/xpgFunc.o
                                                  ../../../libIPLAY/lib//libsensor.a(sensor_manager.o)
                                                  ../object/xpgProcSensorData.o
                                                  ../object/Setup.o
xpgDirectDrawRoleOnWin                            ../../../libIPLAY/lib//libxpg.a(xpgDraw.o)
                                                  ../object/xpgDrawSprite.o
xpgDisableDrive                                   ../object/xpgDriveFunc.o
                                                  ../object/main.o
xpgDraw1BitBitmap                                 ../../../libIPLAY/lib//libxpg.a(xpgDraw.o)
xpgDrawSprite                                     ../object/xpgDrawSprite.o
xpgDrawSprite_Aside                               ../object/xpgDrawSprite.o
xpgDrawSprite_BackIcon                            ../object/xpgDrawSprite.o
xpgDrawSprite_Background                          ../object/xpgDrawSprite.o
xpgDrawSprite_CloseIcon                           ../object/xpgDrawSprite.o
xpgDrawSprite_DarkIcon                            ../object/xpgDrawSprite.o
xpgDrawSprite_Dialog                              ../object/xpgDrawSprite.o
xpgDrawSprite_FileView                            ../object/xpgDrawSprite.o
xpgDrawSprite_HilightFrame                        ../object/xpgDrawSprite.o
xpgDrawSprite_Icon                                ../object/xpgDrawSprite.o
xpgDrawSprite_LightIcon                           ../object/xpgDrawSprite.o
xpgDrawSprite_List                                ../object/xpgDrawSprite.o
xpgDrawSprite_Mask                                ../object/xpgDrawSprite.o
xpgDrawSprite_ModeIcon                            ../object/xpgDrawSprite.o
xpgDrawSprite_Null                                ../object/xpgDrawSprite.o
xpgDrawSprite_Selector                            ../object/xpgDrawSprite.o
xpgDrawSprite_Text                                ../object/xpgDrawSprite.o
xpgDrawSprite_TextBlackCenter                     ../object/xpgDrawSprite.o
xpgDrawSprite_TextBlackLeft                       ../object/xpgDrawSprite.o
xpgDrawSprite_TextWhiteLeft                       ../object/xpgDrawSprite.o
xpgDrawSprite_Title                               ../object/xpgDrawSprite.o
xpgDumpNandIspBlock                               ../../../libIPLAY/lib//libsystem.a(ISP_Nand.o)
xpgEnableDrive                                    ../object/xpgDriveFunc.o
                                                  ../object/main.o
xpgFileClose                                      ../../../libIPLAY/lib//libxpg.a(xpgUtil.o)
                                                  ../../../libIPLAY/lib//libxpg.a(xpgReader.o)
xpgFileDelete                                     ../object/xpgBrowser.o
xpgFileGetSize                                    ../../../libIPLAY/lib//libxpg.a(xpgUtil.o)
xpgFileGetc                                       ../../../libIPLAY/lib//libxpg.a(xpgUtil.o)
xpgFileOpen                                       ../../../libIPLAY/lib//libxpg.a(xpgUtil.o)
                                                  ../../../libIPLAY/lib//libxpg.a(xpgReader.o)
xpgFileRead                                       ../../../libIPLAY/lib//libxpg.a(xpgUtil.o)
                                                  ../../../libIPLAY/lib//libxpg.a(xpgReader.o)
xpgFileSeek                                       ../../../libIPLAY/lib//libxpg.a(xpgUtil.o)
                                                  ../../../libIPLAY/lib//libxpg.a(xpgReader.o)
xpgFileTell                                       ../../../libIPLAY/lib//libxpg.a(xpgUtil.o)
xpgForcedSearchAndGotoPage                        ../../../libIPLAY/lib//libxpg.a(xpg.o)
xpgFree                                           ../../../libIPLAY/lib//libxpg.a(xpgUtil.o)
xpgFreeAll                                        ../../../libIPLAY/lib//libxpg.a(xpgUtil.o)
xpgGetDriveCount                                  ../object/xpgDriveFunc.o
xpgGetFirstDrive                                  ../object/xpgDriveFunc.o
xpgGetFuncPtr                                     ../object/xpgFunc.o
xpgGetStartpage                                   ../../../libIPLAY/lib//libxpg.a(xpgReader.o)
xpgGetXpgMemorySize                               ../../../libIPLAY/lib//libxpg.a(xpgUtil.o)
                                                  ../object/main.o
xpgGetclockTimerCreated                           ../object/ui_timer.o
xpgGotoEnterPage                                  ../../../libIPLAY/lib//libxpg.a(xpg.o)
xpgGotoNewPageInit                                ../object/xpgFunc.o
                                                  ../../../libIPLAY/lib//libxpg.a(xpg.o)
xpgGotoNoCardPage                                 ../object/xpgDriveFunc.o
xpgGotoPage                                       ../../../libIPLAY/lib//libxpg.a(xpg.o)
                                                  ../../../libIPLAY/lib//libxpg.a(xpgUi.o)
xpgHash                                           ../../../libIPLAY/lib//libxpg.a(xpgUtil.o)
                                                  ../../../libIPLAY/lib//libxpg.a(xpgMovie.o)
                                                  ../../lib//libui.a(uiTouchCtrller.o)
                                                  ../object/xpgDrawSprite.o
xpgHashReverse                                    ../../../libIPLAY/lib//libxpg.a(xpgUtil.o)
xpgInitCanvas                                     ../../../libIPLAY/lib//libxpg.a(xpgDraw.o)
                                                  ../object/main.o
xpgInitMemory                                     ../../../libIPLAY/lib//libxpg.a(xpgUtil.o)
                                                  ../../../libIPLAY/lib//libxpg.a(xpg.o)
xpgInitOsdTimeBar                                 ../object/xpgFunc.o
xpgInitThumbBuffer                                ../../../libIPLAY/lib//libxpg.a(xpg.o)
xpgLoadFromFlash                                  ../../../libIPLAY/lib//libxpg.a(xpg.o)
                                                  ../object/main.o
xpgLoadFromSPINOR                                 ../../../libIPLAY/lib//libxpg.a(xpg.o)
xpgLoadMovie                                      ../../../libIPLAY/lib//libxpg.a(xpgReader.o)
                                                  ../../../libIPLAY/lib//libxpg.a(xpg.o)
xpgMalloc                                         ../../../libIPLAY/lib//libxpg.a(xpgUtil.o)
                                                  ../../../libIPLAY/lib//libxpg.a(xpgReader.o)
                                                  ../../../libIPLAY/lib//libxpg.a(xpgSprite.o)
                                                  ../../../libIPLAY/lib//libxpg.a(xpgMovie.o)
xpgMemoryGetFreeSpace                             ../../../libIPLAY/lib//libxpg.a(xpgUtil.o)
xpgMemoryGetOffset                                ../../../libIPLAY/lib//libxpg.a(xpgUtil.o)
xpgMemoryGetOffsetSave                            ../../../libIPLAY/lib//libxpg.a(xpgUtil.o)
                                                  ../../../libIPLAY/lib//libxpg.a(xpgMovie.o)
xpgMemorySetOffset                                ../../../libIPLAY/lib//libxpg.a(xpgUtil.o)
                                                  ../../../libIPLAY/lib//libxpg.a(xpgMovie.o)
xpgMemorySetOffsetSave                            ../../../libIPLAY/lib//libxpg.a(xpgUtil.o)
xpgMenuListNext                                   ../object/xpgBrowser.o
xpgMenuListNextPage                               ../object/xpgBrowser.o
xpgMenuListPrev                                   ../object/xpgBrowser.o
xpgMenuListPrevPage                               ../object/xpgBrowser.o
xpgMenuListSetIndex                               ../object/xpgBrowser.o
xpgMovieInit                                      ../../../libIPLAY/lib//libxpg.a(xpgMovie.o)
                                                  ../../../libIPLAY/lib//libxpg.a(xpg.o)
xpgMovieInitObjRole                               ../../../libIPLAY/lib//libxpg.a(xpgMovie.o)
                                                  ../../../libIPLAY/lib//libxpg.a(xpg.o)
xpgMovieLoadGlobalCommand                         ../../../libIPLAY/lib//libxpg.a(xpgMovie.o)
                                                  ../../../libIPLAY/lib//libxpg.a(xpg.o)
xpgMovieLoadPage                                  ../../../libIPLAY/lib//libxpg.a(xpgMovie.o)
                                                  ../../../libIPLAY/lib//libxpg.a(xpg.o)
xpgMovieLoadPageCommand                           ../../../libIPLAY/lib//libxpg.a(xpgMovie.o)
                                                  ../../../libIPLAY/lib//libxpg.a(xpg.o)
xpgMovieSearchPage                                ../../../libIPLAY/lib//libxpg.a(xpgMovie.o)
                                                  ../../../libIPLAY/lib//libxpg.a(xpg.o)
xpgOpen                                           ../../../libIPLAY/lib//libxpg.a(xpg.o)
xpgOsdDrawIndexColorBitmap                        ../../../libIPLAY/lib//libxpg.a(xpgDraw.o)
xpgOsdPopupError                                  ../object/xpgFunc.o
xpgPreloadAndOpen                                 ../../../libIPLAY/lib//libxpg.a(xpg.o)
                                                  ../object/main.o
xpgProcessEvent                                   ../../../libIPLAY/lib//libxpg.a(xpgUi.o)
                                                  ../object/main.o
xpgReadMovie                                      ../../../libIPLAY/lib//libxpg.a(xpgReader.o)
xpgReadMovieHeader                                ../../../libIPLAY/lib//libxpg.a(xpgReader.o)
xpgReadPage                                       ../../../libIPLAY/lib//libxpg.a(xpgReader.o)
xpgReadPageCommand                                ../../../libIPLAY/lib//libxpg.a(xpgReader.o)
xpgReadPageHeader                                 ../../../libIPLAY/lib//libxpg.a(xpgReader.o)
xpgReadPageSpriteData                             ../../../libIPLAY/lib//libxpg.a(xpgReader.o)
xpgReadRoleData                                   ../../../libIPLAY/lib//libxpg.a(xpgReader.o)
xpgReadRoleHeader                                 ../../../libIPLAY/lib//libxpg.a(xpgReader.o)
xpgReadRoleMask                                   ../../../libIPLAY/lib//libxpg.a(xpgReader.o)
xpgReadSpriteExtraData                            ../../../libIPLAY/lib//libxpg.a(xpgReader.o)
xpgReadSpriteFrame                                ../../../libIPLAY/lib//libxpg.a(xpgReader.o)
xpgReadSpriteText                                 ../../../libIPLAY/lib//libxpg.a(xpgReader.o)
xpgReleaseAllRoleBuffer                           ../../../libIPLAY/lib//libxpg.a(xpg.o)
xpgReleaseThumbBuffer                             ../../../libIPLAY/lib//libxpg.a(xpg.o)
                                                  ../object/xpgBrowser.o
xpgResetBufSize                                   ../../../libIPLAY/lib//libxpg.a(xpgUtil.o)
xpgRoleDraw                                       ../../../libIPLAY/lib//libxpg.a(xpgRole.o)
                                                  ../../../libIPLAY/lib//libxpg.a(xpgDraw.o)
xpgRoleDrawMask                                   ../../../libIPLAY/lib//libxpg.a(xpgRole.o)
                                                  ../object/xpgDrawSprite.o
xpgRoleDrawTransperant                            ../../../libIPLAY/lib//libxpg.a(xpgRole.o)
xpgRoleInit                                       ../../../libIPLAY/lib//libxpg.a(xpgRole.o)
xpgRolePreload                                    ../../../libIPLAY/lib//libxpg.a(xpgRole.o)
xpgRoleRelease                                    ../../../libIPLAY/lib//libxpg.a(xpgRole.o)
                                                  ../../../libIPLAY/lib//libxpg.a(xpg.o)
xpgSearchAndGotoPage                              ../../../libIPLAY/lib//libxpg.a(xpg.o)
                                                  ../../lib//libui.a(uiTouchCtrller.o)
                                                  ../object/xpgFunc.o
                                                  ../object/main.o
xpgSpriteActionInbetween                          ../../../libIPLAY/lib//libxpg.a(xpgSprite.o)
xpgSpriteCopy                                     ../../../libIPLAY/lib//libxpg.a(xpgSprite.o)
                                                  ../../../libIPLAY/lib//libxpg.a(xpgMovie.o)
xpgSpriteCopyFrames                               ../../../libIPLAY/lib//libxpg.a(xpgSprite.o)
xpgSpriteDisableTouch                             ../../../libIPLAY/lib//libxpg.a(xpgSprite.o)
xpgSpriteEnableTouch                              ../../../libIPLAY/lib//libxpg.a(xpgSprite.o)
                                                  ../object/xpgDrawSprite.o
xpgSpriteFindType                                 ../../../libIPLAY/lib//libxpg.a(xpgMovie.o)
                                                  ../object/xpgBrowser.o
                                                  ../object/xpgDrawSprite.o
                                                  ../object/xpgFunc.o
xpgSpriteFramesFree                               ../../../libIPLAY/lib//libxpg.a(xpgSprite.o)
xpgSpriteGetFrame                                 ../../../libIPLAY/lib//libxpg.a(xpgSprite.o)
xpgSpriteInside                                   ../../../libIPLAY/lib//libxpg.a(xpgSprite.o)
xpgSpriteMove                                     ../../../libIPLAY/lib//libxpg.a(xpgSprite.o)
xpgSpriteMoveTo                                   ../../../libIPLAY/lib//libxpg.a(xpgSprite.o)
xpgSpritePosFrameInbetween                        ../../../libIPLAY/lib//libxpg.a(xpgSprite.o)
xpgSpriteSetFrameCount                            ../../../libIPLAY/lib//libxpg.a(xpgSprite.o)
                                                  ../../../libIPLAY/lib//libxpg.a(xpgReader.o)
xpgSpriteSetKeyFrameCount                         ../../../libIPLAY/lib//libxpg.a(xpgSprite.o)
                                                  ../../../libIPLAY/lib//libxpg.a(xpgReader.o)
xpgSpriteSetRole                                  ../../../libIPLAY/lib//libxpg.a(xpgSprite.o)
xpgSpriteSetTouchArea                             ../../../libIPLAY/lib//libxpg.a(xpgSprite.o)
                                                  ../object/xpgDrawSprite.o
xpgSpriteSizeFrameInbetween                       ../../../libIPLAY/lib//libxpg.a(xpgSprite.o)
xpgStopAllAction                                  ../object/xpgFunc.o
                                                  ../object/xpgPhotoFunc.o
                                                  ../object/xpgBrowser.o
                                                  ../object/xpgDriveFunc.o
                                                  ../object/Setup.o
                                                  ../object/main.o
xpgString                                         ../object/xpgString.o
xpgSupportAnimationCheck                          ../../../libIPLAY/lib//libxpg.a(xpg.o)
xpgUiActionFunctionRegister                       ../../../libIPLAY/lib//libxpg.a(xpgUi.o)
                                                  ../object/main.o
xpgUiDrawKeyIconFunctionRegister                  ../../../libIPLAY/lib//libxpg.a(xpgUi.o)
xpgUpdateCanvas                                   ../../../libIPLAY/lib//libxpg.a(xpgDraw.o)
xpgUpdateEQInfo                                   ../object/xpgFunc.o
xpgUpdateFuncPtr                                  ../object/xpgFunc.o
xpgUpdateFuncPtrInit                              ../object/xpgFunc.o
                                                  ../object/main.o
xpgUpdateOsdTimeBar                               ../object/xpgFunc.o
xpgUpdatePageOsd                                  ../object/xpgFunc.o
                                                  ../object/xpgProcSensorData.o
xpgUpdateStage                                    ../../../libIPLAY/lib//libxpg.a(xpgDraw.o)
                                                  ../../../libIPLAY/lib//libxpg.a(xpgUi.o)
                                                  ../../../libIPLAY/lib//libxpg.a(xpg.o)
                                                  ../../lib//libui.a(uiTouchCtrller.o)
                                                  ../object/xpgBrowser.o
                                                  ../object/xpgFunc.o
                                                  ../object/main.o
xpgUpdateStageClip                                ../../../libIPLAY/lib//libxpg.a(xpgDraw.o)
xpgUpdateStageClipBySprite                        ../../../libIPLAY/lib//libxpg.a(xpgDraw.o)
                                                  ../object/xpgBrowser.o
xpgUpdateTimeBar                                  ../object/xpgFunc.o
xpglogHandle                                      ../../../libIPLAY/lib//libxpg.a(xpgReader.o)
